
app.elf:     file format elf32-littleriscv
app.elf
architecture: riscv:rv32, flags 0x00000112:
EXEC_P, HAS_SYMS, D_PAGED
start address 0x00000044

Program Header:
0x70000003 off    0x0000292a vaddr 0x00000000 paddr 0x00000000 align 2**0
         filesz 0x0000001c memsz 0x00000000 flags r--
    LOAD off    0x00001000 vaddr 0x00000000 paddr 0x00000000 align 2**12
         filesz 0x00000020 memsz 0x00000020 flags r-x
    LOAD off    0x00001020 vaddr 0x00000020 paddr 0x00000020 align 2**12
         filesz 0x000016fc memsz 0x000016fc flags r-x
    LOAD off    0x0000271c vaddr 0x0000171c paddr 0x00001918 align 2**12
         filesz 0x000001fc memsz 0x000001fc flags rw-
    LOAD off    0x00000b14 vaddr 0x00001b14 paddr 0x00001b14 align 2**12
         filesz 0x00000000 memsz 0x00000218 flags rw-

Sections:
Idx Name          Size      VMA       LMA       File off  Algn
  0 .entry        00000020  00000000  00000000  00001000  2**5
                  CONTENTS, ALLOC, LOAD, READONLY, CODE
  1 .exceptions   00000000  00000020  00000020  00002918  2**0
                  CONTENTS
  2 .text         00001690  00000020  00000020  00001020  2**2
                  CONTENTS, ALLOC, LOAD, READONLY, CODE
  3 .rodata       0000006c  000016b0  000016b0  000026b0  2**2
                  CONTENTS, ALLOC, LOAD, READONLY, DATA
  4 .rwdata       000001fc  0000171c  00001918  0000271c  2**2
                  CONTENTS, ALLOC, LOAD, DATA
  5 .bss          00000218  00001b14  00001b14  00002b14  2**2
                  ALLOC
  6 .ram          00000000  00001d2c  00001d2c  00002918  2**0
                  CONTENTS
  7 .comment      00000012  00000000  00000000  00002918  2**0
                  CONTENTS, READONLY
  8 .riscv.attributes 0000001c  00000000  00000000  0000292a  2**0
                  CONTENTS, READONLY
  9 .debug_aranges 000004e0  00000000  00000000  00002948  2**3
                  CONTENTS, READONLY, DEBUGGING, OCTETS
 10 .debug_info   00004cc2  00000000  00000000  00002e28  2**0
                  CONTENTS, READONLY, DEBUGGING, OCTETS
 11 .debug_abbrev 000020e1  00000000  00000000  00007aea  2**0
                  CONTENTS, READONLY, DEBUGGING, OCTETS
 12 .debug_line   000022b0  00000000  00000000  00009bcb  2**0
                  CONTENTS, READONLY, DEBUGGING, OCTETS
 13 .debug_frame  000008a4  00000000  00000000  0000be7c  2**2
                  CONTENTS, READONLY, DEBUGGING, OCTETS
 14 .debug_str    00000d14  00000000  00000000  0000c720  2**0
                  CONTENTS, READONLY, DEBUGGING, OCTETS
 15 .debug_line_str 00001151  00000000  00000000  0000d434  2**0
                  CONTENTS, READONLY, DEBUGGING, OCTETS
 16 .debug_ranges 00000020  00000000  00000000  0000e588  2**3
                  CONTENTS, READONLY, DEBUGGING, OCTETS
 17 .debug_rnglists 00000127  00000000  00000000  0000e5a8  2**0
                  CONTENTS, READONLY, DEBUGGING, OCTETS
 18 .debug_loclists 0000032f  00000000  00000000  0000e6cf  2**0
                  CONTENTS, READONLY, DEBUGGING, OCTETS
SYMBOL TABLE:
00000000 l    d  .entry	00000000 .entry
00000020 l    d  .exceptions	00000000 .exceptions
00000020 l    d  .text	00000000 .text
000016b0 l    d  .rodata	00000000 .rodata
0000171c l    d  .rwdata	00000000 .rwdata
00001b14 l    d  .bss	00000000 .bss
00001d2c l    d  .ram	00000000 .ram
00000000 l    d  .comment	00000000 .comment
00000000 l    d  .riscv.attributes	00000000 .riscv.attributes
00000000 l    d  .debug_aranges	00000000 .debug_aranges
00000000 l    d  .debug_info	00000000 .debug_info
00000000 l    d  .debug_abbrev	00000000 .debug_abbrev
00000000 l    d  .debug_line	00000000 .debug_line
00000000 l    d  .debug_frame	00000000 .debug_frame
00000000 l    d  .debug_str	00000000 .debug_str
00000000 l    d  .debug_line_str	00000000 .debug_line_str
00000000 l    d  .debug_ranges	00000000 .debug_ranges
00000000 l    d  .debug_rnglists	00000000 .debug_rnglists
00000000 l    d  .debug_loclists	00000000 .debug_loclists
00000000 l    df *ABS*	00000000 crt0.S.obj
000000d0 l       .text	00000000 alt_after_alt_main
00000000 l    df *ABS*	00000000 main.c
00000000 l    df *ABS*	00000000 alt_load.c
000000d4 l     F .text	00000064 alt_load_section
00000000 l    df *ABS*	00000000 alt_main.c
00000000 l    df *ABS*	00000000 alt_putstr.c
00000000 l    df *ABS*	00000000 alt_sys_init.c
0000171c l     O .rwdata	0000002c juart
00000000 l    df *ABS*	00000000 altera_avalon_jtag_uart_fd.c
00000000 l    df *ABS*	00000000 altera_avalon_jtag_uart_read.c
00000000 l    df *ABS*	00000000 altera_avalon_jtag_uart_write.c
00000000 l    df *ABS*	00000000 alt_close.c
00000000 l    df *ABS*	00000000 alt_dcache_flush_all.c
00000000 l    df *ABS*	00000000 alt_dev.c
00000608 l     F .text	0000002c alt_dev_null_write
00000000 l    df *ABS*	00000000 alt_dev_llist_insert.c
00000000 l    df *ABS*	00000000 alt_do_ctors.c
00000000 l    df *ABS*	00000000 alt_do_dtors.c
00000000 l    df *ABS*	00000000 alt_icache_flush_all.c
00000000 l    df *ABS*	00000000 alt_io_redirect.c
000007e4 l     F .text	00000048 putc_wrapper
0000082c l     F .text	00000068 getc_wrapper
000018f0 l     O .rwdata	00000014 __stdio
00000894 l     F .text	000000dc alt_open_fd
00000000 l    df *ABS*	00000000 alt_open.c
000009e8 l     F .text	000000e8 alt_file_locked
00000000 l    df *ABS*	00000000 alt_read.c
00000000 l    df *ABS*	00000000 alt_release_fd.c
00000000 l    df *ABS*	00000000 alt_write.c
00000000 l    df *ABS*	00000000 alt_find_dev.c
00000000 l    df *ABS*	00000000 alt_find_file.c
00000000 l    df *ABS*	00000000 alt_get_fd.c
00000000 l    df *ABS*	00000000 stack_protector.c
00000000 l    df *ABS*	00000000 pico-atexit.c
00000000 l    df *ABS*	00000000 pico-exit.c
00000000 l    df *ABS*	00000000 pico-onexit.c
00001b2c l     O .bss	00000180 on_exits
00000000 l    df *ABS*	00000000 fputs.c
00000000 l    df *ABS*	00000000 puts.c
00000000 l    df *ABS*	00000000 fini.c
00000000 l    df *ABS*	00000000 lock.c
00000000 l    df *ABS*	00000000 signal.c
00001cac l     O .bss	00000080 _sig_func
00000000 l    df *ABS*	00000000 save-restore.o
00000000 l    df *ABS*	00000000 alt_exit.c
00000000 l    df *ABS*	00000000 errno.c
000001ac g     F .text	00000078 alt_main
00001918 g       *ABS*	00000000 __flash_rwdata_start
00001d2c g       *ABS*	00000000 __alt_heap_start
00002104 g       *ABS*	00000000 __global_pointer$
00001710 g     O .rodata	00000004 stdout
000014c8 g     F .text	0000004c .hidden __riscv_save_8
0000171c g       *ABS*	00000000 __tls_base
0000155c g     F .text	00000018 .hidden __riscv_restore_3
00001534 g     F .text	00000040 .hidden __riscv_restore_10
00001b24 g     O .bss	00000004 __stack_chk_guard
000014c8 g     F .text	0000004c .hidden __riscv_save_11
00000224 g     F .text	00000040 alt_putstr
00000000 g     F .entry	00000004 __reset
00000020 g       *ABS*	00000000 __flash_exceptions_start
00001b20 g     O .bss	00000004 errno
00001b18 g     O .bss	00000004 alt_argv
0000155c g     F .text	00000018 .hidden __riscv_restore_2
00001770 g     O .rwdata	00000180 alt_fd_list
00000e80 g     F .text	00000120 alt_find_dev
00000970 g     F .text	00000078 alt_io_redirect
000013a4 g     F .text	00000068 puts
000015b8 g       *ABS*	00000000 __fini_array_end
00000380 g     F .text	00000104 altera_avalon_jtag_uart_read
000014b8 g     F .text	0000005c .hidden __riscv_save_12
00000000 g       *ABS*	00000000 __alt_mem_ram
00001534 g     F .text	00000040 .hidden __riscv_restore_11
00001514 g     F .text	00000018 .hidden __riscv_save_1
0000155c g     F .text	00000018 .hidden __riscv_restore_0
000014e4 g     F .text	00000030 .hidden __riscv_save_7
00001914 g     O .rwdata	00000004 alt_max_fd
0000119c g     F .text	00000030 __stack_chk_init
00001548 g     F .text	0000002c .hidden __riscv_restore_5
00001d2c g       *ABS*	00000000 __bss_end
000011cc  w    F .text	00000020 __stack_chk_fail
0000171c g       *ABS*	00000000 __tbss_start
00001548 g     F .text	0000002c .hidden __riscv_restore_6
00001748 g     O .rwdata	00000028 alt_dev_null
0000140c g     F .text	0000004c __libc_fini_array
000005ec g     F .text	0000001c alt_dcache_flush_all
00001b28 g     O .bss	00000001 __lock___libc_recursive_mutex
00001918 g       *ABS*	00000000 __ram_rwdata_end
0000190c g     O .rwdata	00000008 alt_dev_list
00000d94 g     F .text	000000ec write
0000171c g       *ABS*	00000000 __ram_rodata_end
000014c8 g     F .text	0000004c .hidden __riscv_save_9
000014e4 g     F .text	00000030 .hidden __riscv_save_4
00001d2c g       *ABS*	00000000 end
00000634 g     F .text	0000003c alt_dev_reg
0000145c g     F .text	00000004 __retarget_lock_release_recursive
00002000 g       *ABS*	00000000 __alt_stack_pointer
00000484 g     F .text	00000098 altera_avalon_jtag_uart_write
00001718 g     O .rodata	00000004 stdin
00001514 g     F .text	00000018 .hidden __riscv_save_3
00001294 g     F .text	000000c4 __call_exitprocs
00000044 g     F .text	00000090 _start
00000c30 g     F .text	000000f0 read
00000288 g     F .text	00000030 alt_sys_init
0000171c g       *ABS*	00000000 __tdata_source
000011cc g     F .text	00000020 __stack_chk_fail_weak
0000171c g       *ABS*	00000000 __ram_rwdata_start
000016b0 g       *ABS*	00000000 __ram_rodata_start
000002b8 g     F .text	00000064 altera_avalon_jtag_uart_read_fd
000010dc g     F .text	000000c0 alt_get_fd
00001d2c g       *ABS*	00000000 __alt_stack_base
000014c8 g     F .text	0000004c .hidden __riscv_save_10
00000fa0 g     F .text	0000013c alt_find_file
00000670 g     F .text	00000098 alt_dev_llist_insert
00001548 g     F .text	0000002c .hidden __riscv_restore_4
000015b8 g       *ABS*	00000000 __fini_array_start
00001534 g     F .text	00000040 .hidden __riscv_restore_8
000014e4 g     F .text	00000030 .hidden __riscv_save_6
00001458 g     F .text	00000004 __retarget_lock_acquire_recursive
00001b14 g       *ABS*	00000000 __bss_start
0000171c g       *ABS*	00000000 __tdata_start
0000171c g       *ABS*	00000000 __tdata_end
00001534 g     F .text	00000040 .hidden __riscv_restore_9
00001548 g     F .text	0000002c .hidden __riscv_restore_7
00000020 g     F .text	00000024 main
00001b1c g     O .bss	00000004 alt_envp
0000031c g     F .text	00000064 altera_avalon_jtag_uart_write_fd
00002000 g       *ABS*	00000000 __alt_heap_limit
000015b8 g       *ABS*	00000000 __init_array_end
00002000 g       *ABS*	00000000 __heap_end
000016b0 g       *ABS*	00000000 __flash_rodata_start
00000264 g     F .text	00000024 alt_irq_init
00000d20 g     F .text	00000074 alt_release_fd
000011ec g     F .text	00000010 atexit
00001714 g     O .rodata	00000004 stderr
00001b14 g     O .bss	00000004 alt_argc
00000768 g     F .text	00000060 _do_dtors
00001904 g     O .rwdata	00000008 alt_fs_list
00001d2c g       *ABS*	00000000 __heap_start
00001514 g     F .text	00000018 .hidden __riscv_save_2
00000020 g       *ABS*	00000000 __ram_exceptions_start
000014e4 g     F .text	00000030 .hidden __riscv_save_5
00001918 g       *ABS*	00000000 _edata
00001d2c g       *ABS*	00000000 _end
00000020 g       *ABS*	00000000 __ram_exceptions_end
000011fc g     F .text	00000028 exit
00002000 g       *ABS*	00000000 __alt_data_end
0000171c g       *ABS*	00000000 __tbss_end
0000152c g     F .text	00000048 .hidden __riscv_restore_12
000015b4 g       *ABS*	00000000 __init_array_start
00001514 g     F .text	00000018 .hidden __riscv_save_0
00001574 g     F .text	00000040 _exit
00000ad0 g     F .text	00000160 open
000007c8 g     F .text	0000001c alt_icache_flush_all
00001224 g     F .text	00000070 _on_exit
00001358 g     F .text	0000004c fputs
0000155c g     F .text	00000018 .hidden __riscv_restore_1
00000708 g     F .text	00000060 _do_ctors
0000051c g     F .text	000000d0 close
00000138 g     F .text	00000074 alt_load
00001460 g     F .text	00000058 raise



Disassembly of section .entry:

00000000 <__reset>:
 * Jump to the _start entry point in the .text section if reset code
 * is allowed or if optimizing for RTL simulation.
 */

    /* Jump to the _start entry point in the .text section. */
    tail _start
   0:	0440006f          	j	44 <_start>
	...

Disassembly of section .text:

00000020 <main>:
/* Hello World */
#include <sys/alt_stdio.h>
#include "system.h"

int main(void) {
      20:	ff010113          	add	sp,sp,-16
      24:	00112623          	sw	ra,12(sp)
      28:	00812423          	sw	s0,8(sp)
      2c:	01010413          	add	s0,sp,16
	alt_putstr("Hello World!\n");
      30:	000017b7          	lui	a5,0x1
      34:	6b078513          	add	a0,a5,1712 # 16b0 <__flash_rodata_start>
      38:	1ec000ef          	jal	224 <alt_putstr>
	
	//loop
	for (;;) {}
      3c:	00000013          	nop
      40:	ffdff06f          	j	3c <main+0x1c>

00000044 <_start>:
#endif /* Initialize Data Cache */
#endif /* ALT_SIM_OPTIMIZE */

    .option push
    .option norelax
    la gp, __global_pointer$
      44:	00002197          	auipc	gp,0x2
      48:	0c018193          	add	gp,gp,192 # 2104 <__global_pointer$>

    /*
     * Now that the caches are initialized, set up the stack pointer and global pointer.
     * The values provided by the linker are assumed to be correctly aligned.
     */
    la sp, __alt_stack_pointer
      4c:	00002117          	auipc	sp,0x2
      50:	fb410113          	add	sp,sp,-76 # 2000 <__alt_data_end>
    /* Log that the BSS is about to be cleared. */
#ifdef ALT_LOG_ENABLE
    ALT_LOG_PUTS(alt_log_msg_bss)
#endif /* ALT_LOG_ENABLE */

    la t1, __bss_start
      54:	00002317          	auipc	t1,0x2
      58:	ac030313          	add	t1,t1,-1344 # 1b14 <alt_argc>
    la t2, __bss_end
      5c:	00002397          	auipc	t2,0x2
      60:	cd038393          	add	t2,t2,-816 # 1d2c <__alt_heap_start>
0:
    sw zero, (t1)
      64:	00032023          	sw	zero,0(t1)
    addi t1, t1, 4
      68:	00430313          	add	t1,t1,4
    bltu t1, t2, 0b
      6c:	fe736ce3          	bltu	t1,t2,64 <_start+0x20>
/*
 * The alt_load() facility is normally used when there is no bootloader.
 * It copies some sections into RAM so it acts like a mini-bootloader.
 */
#ifdef CALL_ALT_LOAD
    call alt_load
      70:	0c8000ef          	jal	138 <alt_load>
 */
#ifndef ALT_SIM_OPTIMIZE
.globl __tbss_start
.globl __tbss_end

    la t1, __tbss_start
      74:	00001317          	auipc	t1,0x1
      78:	6a830313          	add	t1,t1,1704 # 171c <juart>
    la t2, __tbss_end
      7c:	00001397          	auipc	t2,0x1
      80:	6a038393          	add	t2,t2,1696 # 171c <juart>
    
    // Check if we need to skip this (if .tbss is empty)
    bgeu t1, t2, 1f
      84:	00737863          	bgeu	t1,t2,94 <_start+0x50>
0:
    sw zero, (t1)
      88:	00032023          	sw	zero,0(t1)
    addi t1, t1, 4
      8c:	00430313          	add	t1,t1,4
    bltu t1, t2, 0b
      90:	fe736ce3          	bltu	t1,t2,88 <_start+0x44>
// Copy tdata to tdata golden source location
.globl __tdata_start
.globl __tdata_end
.globl __tdata_source

    la t0, __tdata_start
      94:	00001297          	auipc	t0,0x1
      98:	68828293          	add	t0,t0,1672 # 171c <juart>
    la t1, __tdata_end
      9c:	00001317          	auipc	t1,0x1
      a0:	68030313          	add	t1,t1,1664 # 171c <juart>
    la t2, __tdata_source
      a4:	00001397          	auipc	t2,0x1
      a8:	67838393          	add	t2,t2,1656 # 171c <juart>

    // Check if we need to skip this (if .tdata is empty)
    bgeu t0, t1, 1f
      ac:	0062fc63          	bgeu	t0,t1,c4 <_start+0x80>
0:
    lw s1, (t0)
      b0:	0002a483          	lw	s1,0(t0)
    sw s1, (t2)
      b4:	0093a023          	sw	s1,0(t2)
    addi t0, t0, 4
      b8:	00428293          	add	t0,t0,4
    addi t2, t2, 4
      bc:	00438393          	add	t2,t2,4
    bltu t0, t1, 0b
      c0:	fe62e8e3          	bltu	t0,t1,b0 <_start+0x6c>
1:

// Assign thread pointer register (tp) to main thread tls base
.globl __tls_base
    la tp, __tls_base
      c4:	00001217          	auipc	tp,0x1
      c8:	65820213          	add	tp,tp,1624 # 171c <juart>
#ifdef ALT_LOG_ENABLE
    ALT_LOG_PUTS(alt_log_msg_alt_main)
#endif /* ALT_LOG_ENABLE */

    /* Call the C entry point. It should never return. */
    call alt_main
      cc:	0e0000ef          	jal	1ac <alt_main>

000000d0 <alt_after_alt_main>:

    /* Wait in infinite loop in case alt_main does return. */
alt_after_alt_main:
    j alt_after_alt_main
      d0:	0000006f          	j	d0 <alt_after_alt_main>

000000d4 <alt_load_section>:
      d4:	fe010113          	add	sp,sp,-32
      d8:	00812e23          	sw	s0,28(sp)
 */  

void alt_load (void)
{
  /* 
   * Copy the .rwdata section. 
      dc:	02010413          	add	s0,sp,32
      e0:	fea42623          	sw	a0,-20(s0)
      e4:	feb42423          	sw	a1,-24(s0)
      e8:	fec42223          	sw	a2,-28(s0)
   */
      ec:	fe842703          	lw	a4,-24(s0)
      f0:	fec42783          	lw	a5,-20(s0)
      f4:	02f70a63          	beq	a4,a5,128 <alt_load_section+0x54>

  alt_load_section (&__flash_rwdata_start, 
      f8:	0240006f          	j	11c <alt_load_section+0x48>
		               &__ram_rwdata_start,
		               &__ram_rwdata_end);
      fc:	fec42703          	lw	a4,-20(s0)
     100:	00470793          	add	a5,a4,4
     104:	fef42623          	sw	a5,-20(s0)
     108:	fe842783          	lw	a5,-24(s0)
     10c:	00478693          	add	a3,a5,4
     110:	fed42423          	sw	a3,-24(s0)
     114:	00072703          	lw	a4,0(a4)
     118:	00e7a023          	sw	a4,0(a5)
  alt_load_section (&__flash_rwdata_start, 
     11c:	fe842703          	lw	a4,-24(s0)
     120:	fe442783          	lw	a5,-28(s0)
     124:	fcf71ce3          	bne	a4,a5,fc <alt_load_section+0x28>

  /*
   * Copy the exception handler.
     128:	00000013          	nop
     12c:	01c12403          	lw	s0,28(sp)
     130:	02010113          	add	sp,sp,32
     134:	00008067          	ret

00000138 <alt_load>:
{
     138:	ff010113          	add	sp,sp,-16
     13c:	00112623          	sw	ra,12(sp)
     140:	00812423          	sw	s0,8(sp)
     144:	01010413          	add	s0,sp,16
  alt_load_section (&__flash_rwdata_start, 
     148:	000027b7          	lui	a5,0x2
     14c:	91878613          	add	a2,a5,-1768 # 1918 <__flash_rwdata_start>
     150:	000017b7          	lui	a5,0x1
     154:	71c78593          	add	a1,a5,1820 # 171c <juart>
     158:	000027b7          	lui	a5,0x2
     15c:	91878513          	add	a0,a5,-1768 # 1918 <__flash_rwdata_start>
     160:	f75ff0ef          	jal	d4 <alt_load_section>
   */

  alt_load_section (&__flash_exceptions_start, 
     164:	02000613          	li	a2,32
     168:	02000593          	li	a1,32
     16c:	02000513          	li	a0,32
     170:	f65ff0ef          	jal	d4 <alt_load_section>

  /*
   * Copy the .rodata section.
   */

  alt_load_section (&__flash_rodata_start, 
     174:	000017b7          	lui	a5,0x1
     178:	71c78613          	add	a2,a5,1820 # 171c <juart>
     17c:	000017b7          	lui	a5,0x1
     180:	6b078593          	add	a1,a5,1712 # 16b0 <__flash_rodata_start>
     184:	000017b7          	lui	a5,0x1
     188:	6b078513          	add	a0,a5,1712 # 16b0 <__flash_rodata_start>
     18c:	f49ff0ef          	jal	d4 <alt_load_section>
  
  /*
   * Now ensure that the caches are in synch.
   */
  
  alt_dcache_flush_all();
     190:	45c000ef          	jal	5ec <alt_dcache_flush_all>
  alt_icache_flush_all();
     194:	634000ef          	jal	7c8 <alt_icache_flush_all>
}
     198:	00000013          	nop
     19c:	00c12083          	lw	ra,12(sp)
     1a0:	00812403          	lw	s0,8(sp)
     1a4:	01010113          	add	sp,sp,16
     1a8:	00008067          	ret

000001ac <alt_main>:
 * devices/filesystems/components in the system; and call the entry point for
 * the users application, i.e. main().
 */

void alt_main (void)
{
     1ac:	fe010113          	add	sp,sp,-32
     1b0:	00112e23          	sw	ra,28(sp)
     1b4:	00812c23          	sw	s0,24(sp)
     1b8:	02010413          	add	s0,sp,32
#endif

  /* ALT LOG - please see HAL/sys/alt_log_printf.h for details */
  ALT_LOG_PRINT_BOOT("[alt_main.c] Entering alt_main, calling alt_irq_init.\r\n");
  /* Initialize the interrupt controller. */
  alt_irq_init (NULL);
     1bc:	00000513          	li	a0,0
     1c0:	0a4000ef          	jal	264 <alt_irq_init>

  /* Initialize the operating system */
  ALT_LOG_PRINT_BOOT("[alt_main.c] Done alt_irq_init, calling alt_os_init.\r\n");
  ALT_OS_INIT();
     1c4:	00000013          	nop
  ALT_LOG_PRINT_BOOT("[alt_main.c] Done OS Init, calling alt_sem_create.\r\n");
  ALT_SEM_CREATE (&alt_fd_list_lock, 1);

  /* Initialize the device drivers/software components. */
  ALT_LOG_PRINT_BOOT("[alt_main.c] Calling alt_sys_init.\r\n");
  alt_sys_init();
     1c8:	0c0000ef          	jal	288 <alt_sys_init>
   * devices be present (not equal to /dev/null) and if direct drivers
   * aren't being used.
   */

    ALT_LOG_PRINT_BOOT("[alt_main.c] Redirecting IO.\r\n");
    alt_io_redirect(ALT_STDOUT, ALT_STDIN, ALT_STDERR);
     1cc:	000017b7          	lui	a5,0x1
     1d0:	6c078613          	add	a2,a5,1728 # 16c0 <__flash_rodata_start+0x10>
     1d4:	000017b7          	lui	a5,0x1
     1d8:	6c078593          	add	a1,a5,1728 # 16c0 <__flash_rodata_start+0x10>
     1dc:	000017b7          	lui	a5,0x1
     1e0:	6c078513          	add	a0,a5,1728 # 16c0 <__flash_rodata_start+0x10>
     1e4:	78c000ef          	jal	970 <alt_io_redirect>
  /* 
   * Call the C++ constructors 
   */

  ALT_LOG_PRINT_BOOT("[alt_main.c] Calling C++ constructors.\r\n");
  _do_ctors ();
     1e8:	520000ef          	jal	708 <_do_ctors>
   * redefined as _exit()). This is in the interest of reducing code footprint,
   * in that the atexit() overhead is removed when it's not needed.
   */

  ALT_LOG_PRINT_BOOT("[alt_main.c] Calling atexit.\r\n");
  atexit (_do_dtors);
     1ec:	76800513          	li	a0,1896
     1f0:	7fd000ef          	jal	11ec <atexit>
  ALT_LOG_PRINT_BOOT("[alt_main.c] Calling main.\r\n");

#ifdef ALT_NO_EXIT
  main (alt_argc, alt_argv, alt_envp);
#else
  result = main (alt_argc, alt_argv, alt_envp);
     1f4:	a101a703          	lw	a4,-1520(gp) # 1b14 <alt_argc>
     1f8:	a141a683          	lw	a3,-1516(gp) # 1b18 <alt_argv>
     1fc:	a181a783          	lw	a5,-1512(gp) # 1b1c <alt_envp>
     200:	00078613          	mv	a2,a5
     204:	00068593          	mv	a1,a3
     208:	00070513          	mv	a0,a4
     20c:	e15ff0ef          	jal	20 <main>
     210:	fea42623          	sw	a0,-20(s0)
  close(STDOUT_FILENO);
     214:	00100513          	li	a0,1
     218:	304000ef          	jal	51c <close>
  exit (result);
     21c:	fec42503          	lw	a0,-20(s0)
     220:	7dd000ef          	jal	11fc <exit>

00000224 <alt_putstr>:
 * Uses the ALT_DRIVER_WRITE() macro to call directly to driver if available.
 * Otherwise, uses newlib provided fputs() routine.
 */
int 
alt_putstr(const char* str)
{
     224:	fe010113          	add	sp,sp,-32
     228:	00112e23          	sw	ra,28(sp)
     22c:	00812c23          	sw	s0,24(sp)
     230:	02010413          	add	s0,sp,32
     234:	fea42623          	sw	a0,-20(s0)
#else
#ifdef ALT_USE_DIRECT_DRIVERS
    ALT_DRIVER_WRITE_EXTERNS(ALT_STDOUT_DEV);
    return ALT_DRIVER_WRITE(ALT_STDOUT_DEV, str, strlen(str), 0);
#else
    return fputs(str, stdout);
     238:	000017b7          	lui	a5,0x1
     23c:	7107a783          	lw	a5,1808(a5) # 1710 <stdout>
     240:	00078593          	mv	a1,a5
     244:	fec42503          	lw	a0,-20(s0)
     248:	110010ef          	jal	1358 <fputs>
     24c:	00050793          	mv	a5,a0
#endif
#endif
}
     250:	00078513          	mv	a0,a5
     254:	01c12083          	lw	ra,28(sp)
     258:	01812403          	lw	s0,24(sp)
     25c:	02010113          	add	sp,sp,32
     260:	00008067          	ret

00000264 <alt_irq_init>:
 * The "base" parameter is ignored and only
 * present for backwards-compatibility.
 */

void alt_irq_init ( const void* base )
{
     264:	fe010113          	add	sp,sp,-32
     268:	00812e23          	sw	s0,28(sp)
     26c:	02010413          	add	s0,sp,32
     270:	fea42623          	sw	a0,-20(s0)
alt_irq_cpu_enable_interrupts(void)
{
#if NIOSV_HAS_IRQ_SUPPORT
    NIOSV_SET_CSR(NIOSV_MSTATUS_CSR, NIOSV_MSTATUS_MIE_MASK);
#endif
}
     274:	00000013          	nop
    alt_irq_cpu_enable_interrupts();
}
     278:	00000013          	nop
     27c:	01c12403          	lw	s0,28(sp)
     280:	02010113          	add	sp,sp,32
     284:	00008067          	ret

00000288 <alt_sys_init>:
 * Initialize the non-interrupt controller devices.
 * Called after alt_irq_init().
 */

void alt_sys_init( void )
{
     288:	ff010113          	add	sp,sp,-16
     28c:	00112623          	sw	ra,12(sp)
     290:	00812423          	sw	s0,8(sp)
     294:	01010413          	add	s0,sp,16
    ALTERA_AVALON_JTAG_UART_INIT ( JUART, juart);
     298:	000017b7          	lui	a5,0x1
     29c:	71c78513          	add	a0,a5,1820 # 171c <juart>
     2a0:	394000ef          	jal	634 <alt_dev_reg>
    INTEL_NIOSV_C_INIT ( NIOSV, niosv);
}
     2a4:	00000013          	nop
     2a8:	00c12083          	lw	ra,12(sp)
     2ac:	00812403          	lw	s0,8(sp)
     2b0:	01010113          	add	sp,sp,16
     2b4:	00008067          	ret

000002b8 <altera_avalon_jtag_uart_read_fd>:
 *
 */

int 
altera_avalon_jtag_uart_read_fd(alt_fd* fd, char* buffer, int space)
{
     2b8:	fd010113          	add	sp,sp,-48
     2bc:	02112623          	sw	ra,44(sp)
     2c0:	02812423          	sw	s0,40(sp)
     2c4:	03010413          	add	s0,sp,48
     2c8:	fca42e23          	sw	a0,-36(s0)
     2cc:	fcb42c23          	sw	a1,-40(s0)
     2d0:	fcc42a23          	sw	a2,-44(s0)
    altera_avalon_jtag_uart_dev* dev = (altera_avalon_jtag_uart_dev*) fd->dev; 
     2d4:	fdc42783          	lw	a5,-36(s0)
     2d8:	0007a783          	lw	a5,0(a5)
     2dc:	fef42623          	sw	a5,-20(s0)

    return altera_avalon_jtag_uart_read(&dev->state, buffer, space,
     2e0:	fec42783          	lw	a5,-20(s0)
     2e4:	02878713          	add	a4,a5,40
     2e8:	fdc42783          	lw	a5,-36(s0)
     2ec:	0087a783          	lw	a5,8(a5)
     2f0:	00078693          	mv	a3,a5
     2f4:	fd442603          	lw	a2,-44(s0)
     2f8:	fd842583          	lw	a1,-40(s0)
     2fc:	00070513          	mv	a0,a4
     300:	080000ef          	jal	380 <altera_avalon_jtag_uart_read>
     304:	00050793          	mv	a5,a0
      fd->fd_flags);
}
     308:	00078513          	mv	a0,a5
     30c:	02c12083          	lw	ra,44(sp)
     310:	02812403          	lw	s0,40(sp)
     314:	03010113          	add	sp,sp,48
     318:	00008067          	ret

0000031c <altera_avalon_jtag_uart_write_fd>:

int 
altera_avalon_jtag_uart_write_fd(alt_fd* fd, const char* buffer, int space)
{
     31c:	fd010113          	add	sp,sp,-48
     320:	02112623          	sw	ra,44(sp)
     324:	02812423          	sw	s0,40(sp)
     328:	03010413          	add	s0,sp,48
     32c:	fca42e23          	sw	a0,-36(s0)
     330:	fcb42c23          	sw	a1,-40(s0)
     334:	fcc42a23          	sw	a2,-44(s0)
    altera_avalon_jtag_uart_dev* dev = (altera_avalon_jtag_uart_dev*) fd->dev; 
     338:	fdc42783          	lw	a5,-36(s0)
     33c:	0007a783          	lw	a5,0(a5)
     340:	fef42623          	sw	a5,-20(s0)

    return altera_avalon_jtag_uart_write(&dev->state, buffer, space,
     344:	fec42783          	lw	a5,-20(s0)
     348:	02878713          	add	a4,a5,40
     34c:	fdc42783          	lw	a5,-36(s0)
     350:	0087a783          	lw	a5,8(a5)
     354:	00078693          	mv	a3,a5
     358:	fd442603          	lw	a2,-44(s0)
     35c:	fd842583          	lw	a1,-40(s0)
     360:	00070513          	mv	a0,a4
     364:	120000ef          	jal	484 <altera_avalon_jtag_uart_write>
     368:	00050793          	mv	a5,a0
      fd->fd_flags);
}
     36c:	00078513          	mv	a0,a5
     370:	02c12083          	lw	ra,44(sp)
     374:	02812403          	lw	s0,40(sp)
     378:	03010113          	add	sp,sp,48
     37c:	00008067          	ret

00000380 <altera_avalon_jtag_uart_read>:
 */

int 
altera_avalon_jtag_uart_read(altera_avalon_jtag_uart_state* sp, 
  char* buffer, int space, int flags)
{
     380:	fc010113          	add	sp,sp,-64
     384:	02812e23          	sw	s0,60(sp)
     388:	04010413          	add	s0,sp,64
     38c:	fca42623          	sw	a0,-52(s0)
     390:	fcb42423          	sw	a1,-56(s0)
     394:	fcc42223          	sw	a2,-60(s0)
     398:	fcd42023          	sw	a3,-64(s0)
  unsigned int base = sp->base;
     39c:	fcc42783          	lw	a5,-52(s0)
     3a0:	0007a783          	lw	a5,0(a5)
     3a4:	fef42023          	sw	a5,-32(s0)

  char * ptr = buffer;
     3a8:	fc842783          	lw	a5,-56(s0)
     3ac:	fcf42e23          	sw	a5,-36(s0)
  char * end = buffer + space;
     3b0:	fc442783          	lw	a5,-60(s0)
     3b4:	fc842703          	lw	a4,-56(s0)
     3b8:	00f707b3          	add	a5,a4,a5
     3bc:	fef42223          	sw	a5,-28(s0)

  while (ptr < end)
     3c0:	0600006f          	j	420 <altera_avalon_jtag_uart_read+0xa0>
  {
    unsigned int data = IORD_ALTERA_AVALON_JTAG_UART_DATA(base);
     3c4:	fe042783          	lw	a5,-32(s0)
     3c8:	0007a783          	lw	a5,0(a5)
     3cc:	fef42423          	sw	a5,-24(s0)
     3d0:	fe842783          	lw	a5,-24(s0)
     3d4:	fef42623          	sw	a5,-20(s0)

    if (data & ALTERA_AVALON_JTAG_UART_DATA_RVALID_MSK)
     3d8:	fec42703          	lw	a4,-20(s0)
     3dc:	000087b7          	lui	a5,0x8
     3e0:	00f777b3          	and	a5,a4,a5
     3e4:	02078063          	beqz	a5,404 <altera_avalon_jtag_uart_read+0x84>
      *ptr++ = (data & ALTERA_AVALON_JTAG_UART_DATA_DATA_MSK) >> ALTERA_AVALON_JTAG_UART_DATA_DATA_OFST;
     3e8:	fdc42783          	lw	a5,-36(s0)
     3ec:	00178713          	add	a4,a5,1 # 8001 <__global_pointer$+0x5efd>
     3f0:	fce42e23          	sw	a4,-36(s0)
     3f4:	fec42703          	lw	a4,-20(s0)
     3f8:	0ff77713          	zext.b	a4,a4
     3fc:	00e78023          	sb	a4,0(a5)
     400:	0200006f          	j	420 <altera_avalon_jtag_uart_read+0xa0>
    else if (ptr != buffer)
     404:	fdc42703          	lw	a4,-36(s0)
     408:	fc842783          	lw	a5,-56(s0)
     40c:	02f71263          	bne	a4,a5,430 <altera_avalon_jtag_uart_read+0xb0>
      break;
    else if(flags & O_NONBLOCK)
     410:	fc042703          	lw	a4,-64(s0)
     414:	000047b7          	lui	a5,0x4
     418:	00f777b3          	and	a5,a4,a5
     41c:	00079e63          	bnez	a5,438 <altera_avalon_jtag_uart_read+0xb8>
  while (ptr < end)
     420:	fdc42703          	lw	a4,-36(s0)
     424:	fe442783          	lw	a5,-28(s0)
     428:	f8f76ee3          	bltu	a4,a5,3c4 <altera_avalon_jtag_uart_read+0x44>
     42c:	0100006f          	j	43c <altera_avalon_jtag_uart_read+0xbc>
      break;
     430:	00000013          	nop
     434:	0080006f          	j	43c <altera_avalon_jtag_uart_read+0xbc>
      break;   
     438:	00000013          	nop
    
  }

  if (ptr != buffer)
     43c:	fdc42703          	lw	a4,-36(s0)
     440:	fc842783          	lw	a5,-56(s0)
     444:	00f70a63          	beq	a4,a5,458 <altera_avalon_jtag_uart_read+0xd8>
    return ptr - buffer;
     448:	fdc42703          	lw	a4,-36(s0)
     44c:	fc842783          	lw	a5,-56(s0)
     450:	40f707b3          	sub	a5,a4,a5
     454:	0200006f          	j	474 <altera_avalon_jtag_uart_read+0xf4>
  else if (flags & O_NONBLOCK)
     458:	fc042703          	lw	a4,-64(s0)
     45c:	000047b7          	lui	a5,0x4
     460:	00f777b3          	and	a5,a4,a5
     464:	00078663          	beqz	a5,470 <altera_avalon_jtag_uart_read+0xf0>
    return -EWOULDBLOCK;
     468:	ff500793          	li	a5,-11
     46c:	0080006f          	j	474 <altera_avalon_jtag_uart_read+0xf4>
  else
    return -EIO;
     470:	ffb00793          	li	a5,-5
}
     474:	00078513          	mv	a0,a5
     478:	03c12403          	lw	s0,60(sp)
     47c:	04010113          	add	sp,sp,64
     480:	00008067          	ret

00000484 <altera_avalon_jtag_uart_write>:
 * one FIFOs worth of data.  But you said you didn't want to use interrupts :-)
 */

int altera_avalon_jtag_uart_write(altera_avalon_jtag_uart_state* sp, 
  const char * ptr, int count, int flags)
{
     484:	fd010113          	add	sp,sp,-48
     488:	02812623          	sw	s0,44(sp)
     48c:	03010413          	add	s0,sp,48
     490:	fca42e23          	sw	a0,-36(s0)
     494:	fcb42c23          	sw	a1,-40(s0)
     498:	fcc42a23          	sw	a2,-44(s0)
     49c:	fcd42823          	sw	a3,-48(s0)
  unsigned int base = sp->base;
     4a0:	fdc42783          	lw	a5,-36(s0)
     4a4:	0007a783          	lw	a5,0(a5) # 4000 <__global_pointer$+0x1efc>
     4a8:	fef42023          	sw	a5,-32(s0)

  const char * end = ptr + count;
     4ac:	fd442783          	lw	a5,-44(s0)
     4b0:	fd842703          	lw	a4,-40(s0)
     4b4:	00f707b3          	add	a5,a4,a5
     4b8:	fef42223          	sw	a5,-28(s0)

  while (ptr < end)
     4bc:	0400006f          	j	4fc <altera_avalon_jtag_uart_write+0x78>
    if ((IORD_ALTERA_AVALON_JTAG_UART_CONTROL(base) & ALTERA_AVALON_JTAG_UART_CONTROL_WSPACE_MSK) != 0)
     4c0:	fe042783          	lw	a5,-32(s0)
     4c4:	00478793          	add	a5,a5,4
     4c8:	0007a783          	lw	a5,0(a5)
     4cc:	fef42423          	sw	a5,-24(s0)
     4d0:	fe842703          	lw	a4,-24(s0)
     4d4:	000107b7          	lui	a5,0x10
     4d8:	02f76263          	bltu	a4,a5,4fc <altera_avalon_jtag_uart_write+0x78>
      IOWR_ALTERA_AVALON_JTAG_UART_DATA(base, *ptr++);
     4dc:	fd842783          	lw	a5,-40(s0)
     4e0:	00178713          	add	a4,a5,1 # 10001 <__global_pointer$+0xdefd>
     4e4:	fce42c23          	sw	a4,-40(s0)
     4e8:	0007c783          	lbu	a5,0(a5)
     4ec:	fef42623          	sw	a5,-20(s0)
     4f0:	fe042783          	lw	a5,-32(s0)
     4f4:	fec42703          	lw	a4,-20(s0)
     4f8:	00e7a023          	sw	a4,0(a5)
  while (ptr < end)
     4fc:	fd842703          	lw	a4,-40(s0)
     500:	fe442783          	lw	a5,-28(s0)
     504:	faf76ee3          	bltu	a4,a5,4c0 <altera_avalon_jtag_uart_write+0x3c>

  return count;
     508:	fd442783          	lw	a5,-44(s0)
}
     50c:	00078513          	mv	a0,a5
     510:	02c12403          	lw	s0,44(sp)
     514:	03010113          	add	sp,sp,48
     518:	00008067          	ret

0000051c <close>:
 *
 * ALT_CLOSE is mapped onto the close() system call in alt_syscall.h
 */
 
int ALT_CLOSE (int fildes)
{
     51c:	fd010113          	add	sp,sp,-48
     520:	02112623          	sw	ra,44(sp)
     524:	02812423          	sw	s0,40(sp)
     528:	03010413          	add	s0,sp,48
     52c:	fca42e23          	sw	a0,-36(s0)
   * A common error case is that when the file descriptor was created, the call
   * to open() failed resulting in a negative file descriptor. This is trapped
   * below so that we don't try and process an invalid file descriptor.
   */

  fd = (fildes < 0) ? NULL : &alt_fd_list[fildes];
     530:	fdc42783          	lw	a5,-36(s0)
     534:	0207c463          	bltz	a5,55c <close+0x40>
     538:	fdc42703          	lw	a4,-36(s0)
     53c:	00070793          	mv	a5,a4
     540:	00179793          	sll	a5,a5,0x1
     544:	00e787b3          	add	a5,a5,a4
     548:	00279793          	sll	a5,a5,0x2
     54c:	00001737          	lui	a4,0x1
     550:	77070713          	add	a4,a4,1904 # 1770 <alt_fd_list>
     554:	00e787b3          	add	a5,a5,a4
     558:	0080006f          	j	560 <close+0x44>
     55c:	00000793          	li	a5,0
     560:	fef42423          	sw	a5,-24(s0)

  if (fd)
     564:	fe842783          	lw	a5,-24(s0)
     568:	06078263          	beqz	a5,5cc <close+0xb0>
    /*
     * If the associated file system/device has a close function, call it so 
     * that any necessary cleanup code can run.
     */

    rval = (fd->dev->close) ? fd->dev->close(fd) : 0;
     56c:	fe842783          	lw	a5,-24(s0)
     570:	0007a783          	lw	a5,0(a5)
     574:	0107a783          	lw	a5,16(a5)
     578:	02078063          	beqz	a5,598 <close+0x7c>
     57c:	fe842783          	lw	a5,-24(s0)
     580:	0007a783          	lw	a5,0(a5)
     584:	0107a783          	lw	a5,16(a5)
     588:	fe842503          	lw	a0,-24(s0)
     58c:	000780e7          	jalr	a5
     590:	00050793          	mv	a5,a0
     594:	0080006f          	j	59c <close+0x80>
     598:	00000793          	li	a5,0
     59c:	fef42623          	sw	a5,-20(s0)

    /* Free the file descriptor structure and return. */

    alt_release_fd (fildes);
     5a0:	fdc42503          	lw	a0,-36(s0)
     5a4:	77c000ef          	jal	d20 <alt_release_fd>
    if (rval < 0)
     5a8:	fec42783          	lw	a5,-20(s0)
     5ac:	0007dc63          	bgez	a5,5c4 <close+0xa8>
    {
      ALT_ERRNO = -rval;
     5b0:	fec42783          	lw	a5,-20(s0)
     5b4:	40f00733          	neg	a4,a5
     5b8:	a0e1ae23          	sw	a4,-1508(gp) # 1b20 <errno>
      return -1;
     5bc:	fff00793          	li	a5,-1
     5c0:	0180006f          	j	5d8 <close+0xbc>
    }
    return 0;
     5c4:	00000793          	li	a5,0
     5c8:	0100006f          	j	5d8 <close+0xbc>
  }
  else
  {
    ALT_ERRNO = EBADFD;
     5cc:	05100713          	li	a4,81
     5d0:	a0e1ae23          	sw	a4,-1508(gp) # 1b20 <errno>
    return -1;
     5d4:	fff00793          	li	a5,-1
  }
}
     5d8:	00078513          	mv	a0,a5
     5dc:	02c12083          	lw	ra,44(sp)
     5e0:	02812403          	lw	s0,40(sp)
     5e4:	03010113          	add	sp,sp,48
     5e8:	00008067          	ret

000005ec <alt_dcache_flush_all>:

/*
 * alt_dcache_flush_all() is called to flush the entire data cache.
 */
void alt_dcache_flush_all (void)
{
     5ec:	ff010113          	add	sp,sp,-16
     5f0:	00812623          	sw	s0,12(sp)
     5f4:	01010413          	add	s0,sp,16
    for (i = (char*)0; i < (char*) ALT_CPU_DCACHE_SIZE; i+= ALT_CPU_DCACHE_LINE_SIZE)
    { 
      DCACHE_CLEAN_BY_INDEX_VAL(i); 
    }
#endif
}
     5f8:	00000013          	nop
     5fc:	00c12403          	lw	s0,12(sp)
     600:	01010113          	add	sp,sp,16
     604:	00008067          	ret

00000608 <alt_dev_null_write>:
 * by the alt_dev_null device. It simple discards all data passed to it, and
 * indicates that the data has been successfully transmitted.
 */

static int alt_dev_null_write (alt_fd* fd, const char* ptr, int len)
{
     608:	fe010113          	add	sp,sp,-32
     60c:	00812e23          	sw	s0,28(sp)
     610:	02010413          	add	s0,sp,32
     614:	fea42623          	sw	a0,-20(s0)
     618:	feb42423          	sw	a1,-24(s0)
     61c:	fec42223          	sw	a2,-28(s0)
  return len;
     620:	fe442783          	lw	a5,-28(s0)
}
     624:	00078513          	mv	a0,a5
     628:	01c12403          	lw	s0,28(sp)
     62c:	02010113          	add	sp,sp,32
     630:	00008067          	ret

00000634 <alt_dev_reg>:
    }
    /* all other elements are set to zero */
  };
  
int alt_dev_reg (alt_dev* dev)
{
     634:	fe010113          	add	sp,sp,-32
     638:	00112e23          	sw	ra,28(sp)
     63c:	00812c23          	sw	s0,24(sp)
     640:	02010413          	add	s0,sp,32
     644:	fea42623          	sw	a0,-20(s0)
    return alt_dev_llist_insert ((alt_dev_llist*) dev, &alt_dev_list);
     648:	000027b7          	lui	a5,0x2
     64c:	90c78593          	add	a1,a5,-1780 # 190c <alt_dev_list>
     650:	fec42503          	lw	a0,-20(s0)
     654:	01c000ef          	jal	670 <alt_dev_llist_insert>
     658:	00050793          	mv	a5,a0
}
     65c:	00078513          	mv	a0,a5
     660:	01c12083          	lw	ra,28(sp)
     664:	01812403          	lw	s0,24(sp)
     668:	02010113          	add	sp,sp,32
     66c:	00008067          	ret

00000670 <alt_dev_llist_insert>:
/*
 *
 */

int alt_dev_llist_insert (alt_dev_llist* dev, alt_llist* list)
{
     670:	fd010113          	add	sp,sp,-48
     674:	02812623          	sw	s0,44(sp)
     678:	03010413          	add	s0,sp,48
     67c:	fca42e23          	sw	a0,-36(s0)
     680:	fcb42c23          	sw	a1,-40(s0)
  /*
   * check that the device exists, and that it has a valid name.
   */

  if (!dev || !dev->name)
     684:	fdc42783          	lw	a5,-36(s0)
     688:	00078863          	beqz	a5,698 <alt_dev_llist_insert+0x28>
     68c:	fdc42783          	lw	a5,-36(s0)
     690:	0087a783          	lw	a5,8(a5)
     694:	00079a63          	bnez	a5,6a8 <alt_dev_llist_insert+0x38>
  {
    ALT_ERRNO = EINVAL;
     698:	01600713          	li	a4,22
     69c:	a0e1ae23          	sw	a4,-1508(gp) # 1b20 <errno>
    return -EINVAL;
     6a0:	fea00793          	li	a5,-22
     6a4:	0540006f          	j	6f8 <alt_dev_llist_insert+0x88>
  
  /*
   * register the device.
   */
  
  alt_llist_insert(list, &dev->llist);
     6a8:	fdc42783          	lw	a5,-36(s0)
     6ac:	fd842703          	lw	a4,-40(s0)
     6b0:	fee42423          	sw	a4,-24(s0)
     6b4:	fef42623          	sw	a5,-20(s0)
 */

static ALT_INLINE void ALT_ALWAYS_INLINE alt_llist_insert(alt_llist* list, 
                alt_llist* entry)
{
  entry->previous = list;
     6b8:	fec42783          	lw	a5,-20(s0)
     6bc:	fe842703          	lw	a4,-24(s0)
     6c0:	00e7a223          	sw	a4,4(a5)
  entry->next     = list->next;
     6c4:	fe842783          	lw	a5,-24(s0)
     6c8:	0007a703          	lw	a4,0(a5)
     6cc:	fec42783          	lw	a5,-20(s0)
     6d0:	00e7a023          	sw	a4,0(a5)

  list->next->previous = entry;
     6d4:	fe842783          	lw	a5,-24(s0)
     6d8:	0007a783          	lw	a5,0(a5)
     6dc:	fec42703          	lw	a4,-20(s0)
     6e0:	00e7a223          	sw	a4,4(a5)
  list->next           = entry;
     6e4:	fe842783          	lw	a5,-24(s0)
     6e8:	fec42703          	lw	a4,-20(s0)
     6ec:	00e7a023          	sw	a4,0(a5)
}
     6f0:	00000013          	nop

  return 0;  
     6f4:	00000793          	li	a5,0
}
     6f8:	00078513          	mv	a0,a5
     6fc:	02c12403          	lw	s0,44(sp)
     700:	03010113          	add	sp,sp,48
     704:	00008067          	ret

00000708 <_do_ctors>:
/*
 * Run the C++ static constructors.
 */

void _do_ctors(void)
{
     708:	fe010113          	add	sp,sp,-32
     70c:	00112e23          	sw	ra,28(sp)
     710:	00812c23          	sw	s0,24(sp)
     714:	02010413          	add	s0,sp,32
  constructor* ctor;

  for (ctor = __init_array_start; ctor < __init_array_end; ctor++)
     718:	000017b7          	lui	a5,0x1
     71c:	5b478793          	add	a5,a5,1460 # 15b4 <__init_array_start>
     720:	fef42623          	sw	a5,-20(s0)
     724:	01c0006f          	j	740 <_do_ctors+0x38>
        (*ctor) (); 
     728:	fec42783          	lw	a5,-20(s0)
     72c:	0007a783          	lw	a5,0(a5)
     730:	000780e7          	jalr	a5
  for (ctor = __init_array_start; ctor < __init_array_end; ctor++)
     734:	fec42783          	lw	a5,-20(s0)
     738:	00478793          	add	a5,a5,4
     73c:	fef42623          	sw	a5,-20(s0)
     740:	fec42703          	lw	a4,-20(s0)
     744:	000017b7          	lui	a5,0x1
     748:	5b878793          	add	a5,a5,1464 # 15b8 <__fini_array_end>
     74c:	fcf76ee3          	bltu	a4,a5,728 <_do_ctors+0x20>
}
     750:	00000013          	nop
     754:	00000013          	nop
     758:	01c12083          	lw	ra,28(sp)
     75c:	01812403          	lw	s0,24(sp)
     760:	02010113          	add	sp,sp,32
     764:	00008067          	ret

00000768 <_do_dtors>:
/*
 * Run the C++ static destructors.
 */

void _do_dtors(void)
{
     768:	fe010113          	add	sp,sp,-32
     76c:	00112e23          	sw	ra,28(sp)
     770:	00812c23          	sw	s0,24(sp)
     774:	02010413          	add	s0,sp,32
  destructor* dtor;

  for (dtor = &__fini_array_end[-1]; dtor >= __fini_array_start; dtor--)
     778:	000017b7          	lui	a5,0x1
     77c:	5b478793          	add	a5,a5,1460 # 15b4 <__init_array_start>
     780:	fef42623          	sw	a5,-20(s0)
     784:	01c0006f          	j	7a0 <_do_dtors+0x38>
        (*dtor) (); 
     788:	fec42783          	lw	a5,-20(s0)
     78c:	0007a783          	lw	a5,0(a5)
     790:	000780e7          	jalr	a5
  for (dtor = &__fini_array_end[-1]; dtor >= __fini_array_start; dtor--)
     794:	fec42783          	lw	a5,-20(s0)
     798:	ffc78793          	add	a5,a5,-4
     79c:	fef42623          	sw	a5,-20(s0)
     7a0:	fec42703          	lw	a4,-20(s0)
     7a4:	000017b7          	lui	a5,0x1
     7a8:	5b878793          	add	a5,a5,1464 # 15b8 <__fini_array_end>
     7ac:	fcf77ee3          	bgeu	a4,a5,788 <_do_dtors+0x20>
}
     7b0:	00000013          	nop
     7b4:	00000013          	nop
     7b8:	01c12083          	lw	ra,28(sp)
     7bc:	01812403          	lw	s0,24(sp)
     7c0:	02010113          	add	sp,sp,32
     7c4:	00008067          	ret

000007c8 <alt_icache_flush_all>:
/*
 * alt_icache_flush_all() is called to flush the entire instruction cache.
 */

void alt_icache_flush_all (void)
{
     7c8:	ff010113          	add	sp,sp,-16
     7cc:	00812623          	sw	s0,12(sp)
     7d0:	01010413          	add	s0,sp,16
#if ALT_CPU_ICACHE_SIZE > 0
    __asm__ volatile("fence.i" ::: "memory");
#endif
}
     7d4:	00000013          	nop
     7d8:	00c12403          	lw	s0,12(sp)
     7dc:	01010113          	add	sp,sp,16
     7e0:	00008067          	ret

000007e4 <putc_wrapper>:
#include "sys/alt_dev.h"
#include "priv/alt_file.h"

#ifdef USE_PICOLIBC

static int putc_wrapper(char c, FILE *fp) {
     7e4:	fe010113          	add	sp,sp,-32
     7e8:	00112e23          	sw	ra,28(sp)
     7ec:	00812c23          	sw	s0,24(sp)
     7f0:	02010413          	add	s0,sp,32
     7f4:	00050793          	mv	a5,a0
     7f8:	feb42423          	sw	a1,-24(s0)
     7fc:	fef407a3          	sb	a5,-17(s0)
    return write(STDOUT_FILENO, &c, 1);
     800:	fef40793          	add	a5,s0,-17
     804:	00100613          	li	a2,1
     808:	00078593          	mv	a1,a5
     80c:	00100513          	li	a0,1
     810:	584000ef          	jal	d94 <write>
     814:	00050793          	mv	a5,a0
}
     818:	00078513          	mv	a0,a5
     81c:	01c12083          	lw	ra,28(sp)
     820:	01812403          	lw	s0,24(sp)
     824:	02010113          	add	sp,sp,32
     828:	00008067          	ret

0000082c <getc_wrapper>:

static int getc_wrapper(FILE *fp) {
     82c:	fd010113          	add	sp,sp,-48
     830:	02112623          	sw	ra,44(sp)
     834:	02812423          	sw	s0,40(sp)
     838:	03010413          	add	s0,sp,48
     83c:	fca42e23          	sw	a0,-36(s0)
     840:	a201a703          	lw	a4,-1504(gp) # 1b24 <__stack_chk_guard>
     844:	fee42623          	sw	a4,-20(s0)
     848:	00000713          	li	a4,0
    unsigned char c;
    read(STDIN_FILENO, &c, 1);
     84c:	feb40793          	add	a5,s0,-21
     850:	00100613          	li	a2,1
     854:	00078593          	mv	a1,a5
     858:	00000513          	li	a0,0
     85c:	3d4000ef          	jal	c30 <read>
    return c;
     860:	feb44783          	lbu	a5,-21(s0)
     864:	00078713          	mv	a4,a5
}
     868:	fec42683          	lw	a3,-20(s0)
     86c:	a201a783          	lw	a5,-1504(gp) # 1b24 <__stack_chk_guard>
     870:	00f6c7b3          	xor	a5,a3,a5
     874:	00000693          	li	a3,0
     878:	00078463          	beqz	a5,880 <getc_wrapper+0x54>
     87c:	151000ef          	jal	11cc <__stack_chk_fail_weak>
     880:	00070513          	mv	a0,a4
     884:	02c12083          	lw	ra,44(sp)
     888:	02812403          	lw	s0,40(sp)
     88c:	03010113          	add	sp,sp,48
     890:	00008067          	ret

00000894 <alt_open_fd>:
 * If the device can not be succesfully opened, then the input file descriptor
 * remains unchanged.
 */

static void alt_open_fd(alt_fd* fd, const char* name, int flags, int mode)
{
     894:	fd010113          	add	sp,sp,-48
     898:	02112623          	sw	ra,44(sp)
     89c:	02812423          	sw	s0,40(sp)
     8a0:	03010413          	add	s0,sp,48
     8a4:	fca42e23          	sw	a0,-36(s0)
     8a8:	fcb42c23          	sw	a1,-40(s0)
     8ac:	fcc42a23          	sw	a2,-44(s0)
     8b0:	fcd42823          	sw	a3,-48(s0)
  int old;

  old = open (name, flags, mode);
     8b4:	fd042603          	lw	a2,-48(s0)
     8b8:	fd442583          	lw	a1,-44(s0)
     8bc:	fd842503          	lw	a0,-40(s0)
     8c0:	210000ef          	jal	ad0 <open>
     8c4:	fea42623          	sw	a0,-20(s0)

  if (old >= 0)
     8c8:	fec42783          	lw	a5,-20(s0)
     8cc:	0807c863          	bltz	a5,95c <alt_open_fd+0xc8>
  {
    fd->dev      = alt_fd_list[old].dev;
     8d0:	000017b7          	lui	a5,0x1
     8d4:	77078693          	add	a3,a5,1904 # 1770 <alt_fd_list>
     8d8:	fec42703          	lw	a4,-20(s0)
     8dc:	00070793          	mv	a5,a4
     8e0:	00179793          	sll	a5,a5,0x1
     8e4:	00e787b3          	add	a5,a5,a4
     8e8:	00279793          	sll	a5,a5,0x2
     8ec:	00f687b3          	add	a5,a3,a5
     8f0:	0007a703          	lw	a4,0(a5)
     8f4:	fdc42783          	lw	a5,-36(s0)
     8f8:	00e7a023          	sw	a4,0(a5)
    fd->priv     = alt_fd_list[old].priv;
     8fc:	000017b7          	lui	a5,0x1
     900:	77078693          	add	a3,a5,1904 # 1770 <alt_fd_list>
     904:	fec42703          	lw	a4,-20(s0)
     908:	00070793          	mv	a5,a4
     90c:	00179793          	sll	a5,a5,0x1
     910:	00e787b3          	add	a5,a5,a4
     914:	00279793          	sll	a5,a5,0x2
     918:	00f687b3          	add	a5,a3,a5
     91c:	0047a703          	lw	a4,4(a5)
     920:	fdc42783          	lw	a5,-36(s0)
     924:	00e7a223          	sw	a4,4(a5)
    fd->fd_flags = alt_fd_list[old].fd_flags;
     928:	000017b7          	lui	a5,0x1
     92c:	77078693          	add	a3,a5,1904 # 1770 <alt_fd_list>
     930:	fec42703          	lw	a4,-20(s0)
     934:	00070793          	mv	a5,a4
     938:	00179793          	sll	a5,a5,0x1
     93c:	00e787b3          	add	a5,a5,a4
     940:	00279793          	sll	a5,a5,0x2
     944:	00f687b3          	add	a5,a3,a5
     948:	0087a703          	lw	a4,8(a5)
     94c:	fdc42783          	lw	a5,-36(s0)
     950:	00e7a423          	sw	a4,8(a5)

    alt_release_fd (old);
     954:	fec42503          	lw	a0,-20(s0)
     958:	3c8000ef          	jal	d20 <alt_release_fd>
  }
} 
     95c:	00000013          	nop
     960:	02c12083          	lw	ra,44(sp)
     964:	02812403          	lw	s0,40(sp)
     968:	03010113          	add	sp,sp,48
     96c:	00008067          	ret

00000970 <alt_io_redirect>:
 */
 
void alt_io_redirect(const char* stdout_dev, 
                     const char* stdin_dev, 
                     const char* stderr_dev)
{
     970:	fe010113          	add	sp,sp,-32
     974:	00112e23          	sw	ra,28(sp)
     978:	00812c23          	sw	s0,24(sp)
     97c:	02010413          	add	s0,sp,32
     980:	fea42623          	sw	a0,-20(s0)
     984:	feb42423          	sw	a1,-24(s0)
     988:	fec42223          	sw	a2,-28(s0)
  /* Redirect the channels */

  alt_open_fd (&alt_fd_list[STDOUT_FILENO], stdout_dev, O_WRONLY, 0777);
     98c:	1ff00693          	li	a3,511
     990:	00100613          	li	a2,1
     994:	fec42583          	lw	a1,-20(s0)
     998:	000017b7          	lui	a5,0x1
     99c:	77c78513          	add	a0,a5,1916 # 177c <alt_fd_list+0xc>
     9a0:	ef5ff0ef          	jal	894 <alt_open_fd>
  alt_open_fd (&alt_fd_list[STDIN_FILENO], stdin_dev, O_RDONLY, 0777);
     9a4:	1ff00693          	li	a3,511
     9a8:	00000613          	li	a2,0
     9ac:	fe842583          	lw	a1,-24(s0)
     9b0:	000017b7          	lui	a5,0x1
     9b4:	77078513          	add	a0,a5,1904 # 1770 <alt_fd_list>
     9b8:	eddff0ef          	jal	894 <alt_open_fd>
  alt_open_fd (&alt_fd_list[STDERR_FILENO], stderr_dev, O_WRONLY, 0777);
     9bc:	1ff00693          	li	a3,511
     9c0:	00100613          	li	a2,1
     9c4:	fe442583          	lw	a1,-28(s0)
     9c8:	000017b7          	lui	a5,0x1
     9cc:	78878513          	add	a0,a5,1928 # 1788 <alt_fd_list+0x18>
     9d0:	ec5ff0ef          	jal	894 <alt_open_fd>
  if ((FILE *)stderr->_bf._base == NULL)
  {
    setvbuf(stderr, NULL, _IONBF, 0);
  }
#endif
}  
     9d4:	00000013          	nop
     9d8:	01c12083          	lw	ra,28(sp)
     9dc:	01812403          	lw	s0,24(sp)
     9e0:	02010113          	add	sp,sp,32
     9e4:	00008067          	ret

000009e8 <alt_file_locked>:
 * performed for devices. Filesystems are required to handle the ioctl() call
 * themselves, and report the error from the filesystems open() function. 
 */ 

static int alt_file_locked (alt_fd* fd)
{
     9e8:	fd010113          	add	sp,sp,-48
     9ec:	02812623          	sw	s0,44(sp)
     9f0:	03010413          	add	s0,sp,48
     9f4:	fca42e23          	sw	a0,-36(s0)

  /*
   * Mark the file descriptor as belonging to a device.
   */

  fd->fd_flags |= ALT_FD_DEV;
     9f8:	fdc42783          	lw	a5,-36(s0)
     9fc:	0087a703          	lw	a4,8(a5)
     a00:	400007b7          	lui	a5,0x40000
     a04:	00f76733          	or	a4,a4,a5
     a08:	fdc42783          	lw	a5,-36(s0)
     a0c:	00e7a423          	sw	a4,8(a5) # 40000008 <__global_pointer$+0x3fffdf04>
  /*
   * Loop through all current file descriptors searching for one that's locked
   * for exclusive access. If a match is found, generate an error.
   */

  for (i = 0; i <= alt_max_fd; i++)
     a10:	fe042623          	sw	zero,-20(s0)
     a14:	0980006f          	j	aac <alt_file_locked+0xc4>
  {
    if ((alt_fd_list[i].dev == fd->dev) &&
     a18:	000017b7          	lui	a5,0x1
     a1c:	77078693          	add	a3,a5,1904 # 1770 <alt_fd_list>
     a20:	fec42703          	lw	a4,-20(s0)
     a24:	00070793          	mv	a5,a4
     a28:	00179793          	sll	a5,a5,0x1
     a2c:	00e787b3          	add	a5,a5,a4
     a30:	00279793          	sll	a5,a5,0x2
     a34:	00f687b3          	add	a5,a3,a5
     a38:	0007a703          	lw	a4,0(a5)
     a3c:	fdc42783          	lw	a5,-36(s0)
     a40:	0007a783          	lw	a5,0(a5)
     a44:	04f71e63          	bne	a4,a5,aa0 <alt_file_locked+0xb8>
        (alt_fd_list[i].fd_flags & ALT_FD_EXCL) &&
     a48:	000017b7          	lui	a5,0x1
     a4c:	77078693          	add	a3,a5,1904 # 1770 <alt_fd_list>
     a50:	fec42703          	lw	a4,-20(s0)
     a54:	00070793          	mv	a5,a4
     a58:	00179793          	sll	a5,a5,0x1
     a5c:	00e787b3          	add	a5,a5,a4
     a60:	00279793          	sll	a5,a5,0x2
     a64:	00f687b3          	add	a5,a3,a5
     a68:	0087a783          	lw	a5,8(a5)
    if ((alt_fd_list[i].dev == fd->dev) &&
     a6c:	0207da63          	bgez	a5,aa0 <alt_file_locked+0xb8>
        (&alt_fd_list[i] != fd))
     a70:	fec42703          	lw	a4,-20(s0)
     a74:	00070793          	mv	a5,a4
     a78:	00179793          	sll	a5,a5,0x1
     a7c:	00e787b3          	add	a5,a5,a4
     a80:	00279793          	sll	a5,a5,0x2
     a84:	00001737          	lui	a4,0x1
     a88:	77070713          	add	a4,a4,1904 # 1770 <alt_fd_list>
     a8c:	00e787b3          	add	a5,a5,a4
        (alt_fd_list[i].fd_flags & ALT_FD_EXCL) &&
     a90:	fdc42703          	lw	a4,-36(s0)
     a94:	00f70663          	beq	a4,a5,aa0 <alt_file_locked+0xb8>
    {
      return -EACCES;
     a98:	ff300793          	li	a5,-13
     a9c:	0240006f          	j	ac0 <alt_file_locked+0xd8>
  for (i = 0; i <= alt_max_fd; i++)
     aa0:	fec42783          	lw	a5,-20(s0)
     aa4:	00178793          	add	a5,a5,1
     aa8:	fef42623          	sw	a5,-20(s0)
     aac:	8101a783          	lw	a5,-2032(gp) # 1914 <alt_max_fd>
     ab0:	00078713          	mv	a4,a5
     ab4:	fec42783          	lw	a5,-20(s0)
     ab8:	f6f770e3          	bgeu	a4,a5,a18 <alt_file_locked+0x30>
    }
  }
  
  /* The device is not locked */
 
  return 0;
     abc:	00000793          	li	a5,0
}
     ac0:	00078513          	mv	a0,a5
     ac4:	02c12403          	lw	s0,44(sp)
     ac8:	03010113          	add	sp,sp,48
     acc:	00008067          	ret

00000ad0 <open>:
 *
 * ALT_OPEN is mapped onto the open() system call in alt_syscall.h
 */
 
int ALT_OPEN (const char* file, int flags, int mode)
{ 
     ad0:	fc010113          	add	sp,sp,-64
     ad4:	02112e23          	sw	ra,60(sp)
     ad8:	02812c23          	sw	s0,56(sp)
     adc:	04010413          	add	s0,sp,64
     ae0:	fca42623          	sw	a0,-52(s0)
     ae4:	fcb42423          	sw	a1,-56(s0)
     ae8:	fcc42223          	sw	a2,-60(s0)
  alt_dev* dev;
  alt_fd*  fd;
  int index  = -1;
     aec:	fff00793          	li	a5,-1
     af0:	fef42023          	sw	a5,-32(s0)
  int status = -ENODEV;
     af4:	fed00793          	li	a5,-19
     af8:	fef42223          	sw	a5,-28(s0)
  int isafs = 0;
     afc:	fe042423          	sw	zero,-24(s0)
  /* 
   * Check the device list, to see if a device with a matching name is 
   * registered.
   */
  
  if (!(dev = alt_find_dev (file, &alt_dev_list)))
     b00:	000027b7          	lui	a5,0x2
     b04:	90c78593          	add	a1,a5,-1780 # 190c <alt_dev_list>
     b08:	fcc42503          	lw	a0,-52(s0)
     b0c:	374000ef          	jal	e80 <alt_find_dev>
     b10:	fca42e23          	sw	a0,-36(s0)
     b14:	fdc42783          	lw	a5,-36(s0)
     b18:	00079c63          	bnez	a5,b30 <open+0x60>
  {
    /* No matching device, so try the filesystem list */

    dev   = alt_find_file (file);
     b1c:	fcc42503          	lw	a0,-52(s0)
     b20:	480000ef          	jal	fa0 <alt_find_file>
     b24:	fca42e23          	sw	a0,-36(s0)
    isafs = 1;
     b28:	00100793          	li	a5,1
     b2c:	fef42423          	sw	a5,-24(s0)

  /* 
   * If a matching device or filesystem is found, allocate a file descriptor. 
   */

  if (dev)
     b30:	fdc42783          	lw	a5,-36(s0)
     b34:	0a078c63          	beqz	a5,bec <open+0x11c>
  {
    if ((index = alt_get_fd (dev)) < 0)
     b38:	fdc42503          	lw	a0,-36(s0)
     b3c:	5a0000ef          	jal	10dc <alt_get_fd>
     b40:	fea42023          	sw	a0,-32(s0)
     b44:	fe042783          	lw	a5,-32(s0)
     b48:	0007d863          	bgez	a5,b58 <open+0x88>
    {
      status = index;
     b4c:	fe042783          	lw	a5,-32(s0)
     b50:	fef42223          	sw	a5,-28(s0)
     b54:	0a00006f          	j	bf4 <open+0x124>
    }
    else
    {
      fd = &alt_fd_list[index];
     b58:	fe042703          	lw	a4,-32(s0)
     b5c:	00070793          	mv	a5,a4
     b60:	00179793          	sll	a5,a5,0x1
     b64:	00e787b3          	add	a5,a5,a4
     b68:	00279793          	sll	a5,a5,0x2
     b6c:	00001737          	lui	a4,0x1
     b70:	77070713          	add	a4,a4,1904 # 1770 <alt_fd_list>
     b74:	00e787b3          	add	a5,a5,a4
     b78:	fef42623          	sw	a5,-20(s0)
      fd->fd_flags = (flags & ~ALT_FD_FLAGS_MASK);
     b7c:	fc842703          	lw	a4,-56(s0)
     b80:	400007b7          	lui	a5,0x40000
     b84:	fff78793          	add	a5,a5,-1 # 3fffffff <__global_pointer$+0x3fffdefb>
     b88:	00f77733          	and	a4,a4,a5
     b8c:	fec42783          	lw	a5,-20(s0)
     b90:	00e7a423          	sw	a4,8(a5)
      
      /* If this is a device, ensure it isn't already locked */

      if (isafs || ((status = alt_file_locked (fd)) >= 0))
     b94:	fe842783          	lw	a5,-24(s0)
     b98:	00079c63          	bnez	a5,bb0 <open+0xe0>
     b9c:	fec42503          	lw	a0,-20(s0)
     ba0:	e49ff0ef          	jal	9e8 <alt_file_locked>
     ba4:	fea42223          	sw	a0,-28(s0)
     ba8:	fe442783          	lw	a5,-28(s0)
     bac:	0407c463          	bltz	a5,bf4 <open+0x124>
        /* 
         * If the device or filesystem provides an open() callback function,
         * call it now to perform any device/filesystem specific operations.
         */
    
        status = (dev->open) ? dev->open(fd, file, flags, mode): 0;
     bb0:	fdc42783          	lw	a5,-36(s0)
     bb4:	00c7a783          	lw	a5,12(a5)
     bb8:	02078463          	beqz	a5,be0 <open+0x110>
     bbc:	fdc42783          	lw	a5,-36(s0)
     bc0:	00c7a783          	lw	a5,12(a5)
     bc4:	fc442683          	lw	a3,-60(s0)
     bc8:	fc842603          	lw	a2,-56(s0)
     bcc:	fcc42583          	lw	a1,-52(s0)
     bd0:	fec42503          	lw	a0,-20(s0)
     bd4:	000780e7          	jalr	a5
     bd8:	00050793          	mv	a5,a0
     bdc:	0080006f          	j	be4 <open+0x114>
     be0:	00000793          	li	a5,0
     be4:	fef42223          	sw	a5,-28(s0)
     be8:	00c0006f          	j	bf4 <open+0x124>
      }
    }
  }
  else
  {
    status = -ENODEV;
     bec:	fed00793          	li	a5,-19
     bf0:	fef42223          	sw	a5,-28(s0)
  }

  /* Allocation failed, so clean up and return an error */ 

  if (status < 0)
     bf4:	fe442783          	lw	a5,-28(s0)
     bf8:	0207d063          	bgez	a5,c18 <open+0x148>
  {
    alt_release_fd (index);  
     bfc:	fe042503          	lw	a0,-32(s0)
     c00:	120000ef          	jal	d20 <alt_release_fd>
    ALT_ERRNO = -status;
     c04:	fe442783          	lw	a5,-28(s0)
     c08:	40f00733          	neg	a4,a5
     c0c:	a0e1ae23          	sw	a4,-1508(gp) # 1b20 <errno>
    return -1;
     c10:	fff00793          	li	a5,-1
     c14:	0080006f          	j	c1c <open+0x14c>
  }
  
  /* return the reference upon success */

  return index;
     c18:	fe042783          	lw	a5,-32(s0)
}
     c1c:	00078513          	mv	a0,a5
     c20:	03c12083          	lw	ra,60(sp)
     c24:	03812403          	lw	s0,56(sp)
     c28:	04010113          	add	sp,sp,64
     c2c:	00008067          	ret

00000c30 <read>:
}

#else /* !ALT_USE_DIRECT_DRIVERS */

int ALT_READ (int file, void *ptr, size_t len)
{
     c30:	fd010113          	add	sp,sp,-48
     c34:	02112623          	sw	ra,44(sp)
     c38:	02812423          	sw	s0,40(sp)
     c3c:	03010413          	add	s0,sp,48
     c40:	fca42e23          	sw	a0,-36(s0)
     c44:	fcb42c23          	sw	a1,-40(s0)
     c48:	fcc42a23          	sw	a2,-44(s0)
   * A common error case is that when the file descriptor was created, the call
   * to open() failed resulting in a negative file descriptor. This is trapped
   * below so that we don't try and process an invalid file descriptor.
   */

  fd = (file < 0) ? NULL : &alt_fd_list[file];
     c4c:	fdc42783          	lw	a5,-36(s0)
     c50:	0207c463          	bltz	a5,c78 <read+0x48>
     c54:	fdc42703          	lw	a4,-36(s0)
     c58:	00070793          	mv	a5,a4
     c5c:	00179793          	sll	a5,a5,0x1
     c60:	00e787b3          	add	a5,a5,a4
     c64:	00279793          	sll	a5,a5,0x2
     c68:	00001737          	lui	a4,0x1
     c6c:	77070713          	add	a4,a4,1904 # 1770 <alt_fd_list>
     c70:	00e787b3          	add	a5,a5,a4
     c74:	0080006f          	j	c7c <read+0x4c>
     c78:	00000793          	li	a5,0
     c7c:	fef42423          	sw	a5,-24(s0)
  
  if (fd)
     c80:	fe842783          	lw	a5,-24(s0)
     c84:	06078e63          	beqz	a5,d00 <read+0xd0>
     * If the file has not been opened with read access, or if the driver does
     * not provide an implementation of read(), generate an error. Otherwise
     * call the drivers read() function to process the request.
     */

    if (((fd->fd_flags & O_ACCMODE) != O_WRONLY) && 
     c88:	fe842783          	lw	a5,-24(s0)
     c8c:	0087a783          	lw	a5,8(a5)
     c90:	0037f713          	and	a4,a5,3
     c94:	00100793          	li	a5,1
     c98:	04f70e63          	beq	a4,a5,cf4 <read+0xc4>
        (fd->dev->read))
     c9c:	fe842783          	lw	a5,-24(s0)
     ca0:	0007a783          	lw	a5,0(a5)
     ca4:	0147a783          	lw	a5,20(a5)
    if (((fd->fd_flags & O_ACCMODE) != O_WRONLY) && 
     ca8:	04078663          	beqz	a5,cf4 <read+0xc4>
      {
        if ((rval = fd->dev->read(fd, ptr, len)) < 0)
     cac:	fe842783          	lw	a5,-24(s0)
     cb0:	0007a783          	lw	a5,0(a5)
     cb4:	0147a783          	lw	a5,20(a5)
     cb8:	fd442703          	lw	a4,-44(s0)
     cbc:	00070613          	mv	a2,a4
     cc0:	fd842583          	lw	a1,-40(s0)
     cc4:	fe842503          	lw	a0,-24(s0)
     cc8:	000780e7          	jalr	a5
     ccc:	fea42623          	sw	a0,-20(s0)
     cd0:	fec42783          	lw	a5,-20(s0)
     cd4:	0007dc63          	bgez	a5,cec <read+0xbc>
        {
          ALT_ERRNO = -rval;
     cd8:	fec42783          	lw	a5,-20(s0)
     cdc:	40f00733          	neg	a4,a5
     ce0:	a0e1ae23          	sw	a4,-1508(gp) # 1b20 <errno>
          return -1;
     ce4:	fff00793          	li	a5,-1
     ce8:	0240006f          	j	d0c <read+0xdc>
        }
        return rval;
     cec:	fec42783          	lw	a5,-20(s0)
     cf0:	01c0006f          	j	d0c <read+0xdc>
      }
      else
      {
        ALT_ERRNO = EACCES;
     cf4:	00d00713          	li	a4,13
     cf8:	a0e1ae23          	sw	a4,-1508(gp) # 1b20 <errno>
     cfc:	00c0006f          	j	d08 <read+0xd8>
      }
    }
  else
  {
    ALT_ERRNO = EBADFD;
     d00:	05100713          	li	a4,81
     d04:	a0e1ae23          	sw	a4,-1508(gp) # 1b20 <errno>
  }
  return -1;
     d08:	fff00793          	li	a5,-1
}
     d0c:	00078513          	mv	a0,a5
     d10:	02c12083          	lw	ra,44(sp)
     d14:	02812403          	lw	s0,40(sp)
     d18:	03010113          	add	sp,sp,48
     d1c:	00008067          	ret

00000d20 <alt_release_fd>:
 * File descriptors correcponding to standard in, standard out and standard 
 * error cannont be released backed to the pool. They are always reserved.
 */

void alt_release_fd (int fd)
{
     d20:	fe010113          	add	sp,sp,-32
     d24:	00812e23          	sw	s0,28(sp)
     d28:	02010413          	add	s0,sp,32
     d2c:	fea42623          	sw	a0,-20(s0)
  if (fd > 2)
     d30:	fec42703          	lw	a4,-20(s0)
     d34:	00200793          	li	a5,2
     d38:	04e7d663          	bge	a5,a4,d84 <alt_release_fd+0x64>
  {
    alt_fd_list[fd].fd_flags = 0;
     d3c:	000017b7          	lui	a5,0x1
     d40:	77078693          	add	a3,a5,1904 # 1770 <alt_fd_list>
     d44:	fec42703          	lw	a4,-20(s0)
     d48:	00070793          	mv	a5,a4
     d4c:	00179793          	sll	a5,a5,0x1
     d50:	00e787b3          	add	a5,a5,a4
     d54:	00279793          	sll	a5,a5,0x2
     d58:	00f687b3          	add	a5,a3,a5
     d5c:	0007a423          	sw	zero,8(a5)
    alt_fd_list[fd].dev      = 0;
     d60:	000017b7          	lui	a5,0x1
     d64:	77078693          	add	a3,a5,1904 # 1770 <alt_fd_list>
     d68:	fec42703          	lw	a4,-20(s0)
     d6c:	00070793          	mv	a5,a4
     d70:	00179793          	sll	a5,a5,0x1
     d74:	00e787b3          	add	a5,a5,a4
     d78:	00279793          	sll	a5,a5,0x2
     d7c:	00f687b3          	add	a5,a3,a5
     d80:	0007a023          	sw	zero,0(a5)
  }
}
     d84:	00000013          	nop
     d88:	01c12403          	lw	s0,28(sp)
     d8c:	02010113          	add	sp,sp,32
     d90:	00008067          	ret

00000d94 <write>:
}

#else /* !ALT_USE_DIRECT_DRIVERS */

int ALT_WRITE (int file, const void *ptr, size_t len)
{
     d94:	fd010113          	add	sp,sp,-48
     d98:	02112623          	sw	ra,44(sp)
     d9c:	02812423          	sw	s0,40(sp)
     da0:	03010413          	add	s0,sp,48
     da4:	fca42e23          	sw	a0,-36(s0)
     da8:	fcb42c23          	sw	a1,-40(s0)
     dac:	fcc42a23          	sw	a2,-44(s0)
   * A common error case is that when the file descriptor was created, the call
   * to open() failed resulting in a negative file descriptor. This is trapped
   * below so that we don't try and process an invalid file descriptor.
   */

  fd = (file < 0) ? NULL : &alt_fd_list[file];
     db0:	fdc42783          	lw	a5,-36(s0)
     db4:	0207c463          	bltz	a5,ddc <write+0x48>
     db8:	fdc42703          	lw	a4,-36(s0)
     dbc:	00070793          	mv	a5,a4
     dc0:	00179793          	sll	a5,a5,0x1
     dc4:	00e787b3          	add	a5,a5,a4
     dc8:	00279793          	sll	a5,a5,0x2
     dcc:	00001737          	lui	a4,0x1
     dd0:	77070713          	add	a4,a4,1904 # 1770 <alt_fd_list>
     dd4:	00e787b3          	add	a5,a5,a4
     dd8:	0080006f          	j	de0 <write+0x4c>
     ddc:	00000793          	li	a5,0
     de0:	fef42423          	sw	a5,-24(s0)
  
  if (fd)
     de4:	fe842783          	lw	a5,-24(s0)
     de8:	06078c63          	beqz	a5,e60 <write+0xcc>
     * If the file has not been opened with write access, or if the driver does
     * not provide an implementation of write(), generate an error. Otherwise
     * call the drivers write() function to process the request.
     */

    if (((fd->fd_flags & O_ACCMODE) != O_RDONLY) && fd->dev->write)
     dec:	fe842783          	lw	a5,-24(s0)
     df0:	0087a783          	lw	a5,8(a5)
     df4:	0037f793          	and	a5,a5,3
     df8:	04078e63          	beqz	a5,e54 <write+0xc0>
     dfc:	fe842783          	lw	a5,-24(s0)
     e00:	0007a783          	lw	a5,0(a5)
     e04:	0187a783          	lw	a5,24(a5)
     e08:	04078663          	beqz	a5,e54 <write+0xc0>
    {
      
      /* ALT_LOG - see altera_hal/HAL/inc/sys/alt_log_printf.h */
      ALT_LOG_WRITE_FUNCTION(ptr,len);

      if ((rval = fd->dev->write(fd, ptr, len)) < 0)
     e0c:	fe842783          	lw	a5,-24(s0)
     e10:	0007a783          	lw	a5,0(a5)
     e14:	0187a783          	lw	a5,24(a5)
     e18:	fd442703          	lw	a4,-44(s0)
     e1c:	00070613          	mv	a2,a4
     e20:	fd842583          	lw	a1,-40(s0)
     e24:	fe842503          	lw	a0,-24(s0)
     e28:	000780e7          	jalr	a5
     e2c:	fea42623          	sw	a0,-20(s0)
     e30:	fec42783          	lw	a5,-20(s0)
     e34:	0007dc63          	bgez	a5,e4c <write+0xb8>
      {
        ALT_ERRNO = -rval;
     e38:	fec42783          	lw	a5,-20(s0)
     e3c:	40f00733          	neg	a4,a5
     e40:	a0e1ae23          	sw	a4,-1508(gp) # 1b20 <errno>
        return -1;
     e44:	fff00793          	li	a5,-1
     e48:	0240006f          	j	e6c <write+0xd8>
      }
      return rval;
     e4c:	fec42783          	lw	a5,-20(s0)
     e50:	01c0006f          	j	e6c <write+0xd8>
    }
    else
    {
      ALT_ERRNO = EACCES;
     e54:	00d00713          	li	a4,13
     e58:	a0e1ae23          	sw	a4,-1508(gp) # 1b20 <errno>
     e5c:	00c0006f          	j	e68 <write+0xd4>
    }
  }
  else  
  {
    ALT_ERRNO = EBADFD;
     e60:	05100713          	li	a4,81
     e64:	a0e1ae23          	sw	a4,-1508(gp) # 1b20 <errno>
  }
  return -1;
     e68:	fff00793          	li	a5,-1
}
     e6c:	00078513          	mv	a0,a5
     e70:	02c12083          	lw	ra,44(sp)
     e74:	02812403          	lw	s0,40(sp)
     e78:	03010113          	add	sp,sp,48
     e7c:	00008067          	ret

00000e80 <alt_find_dev>:
 * "name" must be an exact match for the devices registered name for a match to
 * be found.
 */
 
alt_dev* alt_find_dev(const char* name, alt_llist* llist)
{
     e80:	fd010113          	add	sp,sp,-48
     e84:	02812623          	sw	s0,44(sp)
     e88:	03010413          	add	s0,sp,48
     e8c:	fca42e23          	sw	a0,-36(s0)
     e90:	fcb42c23          	sw	a1,-40(s0)
    alt_dev* next=NULL; 
     e94:	fe042223          	sw	zero,-28(s0)
    alt_32   len=0;
     e98:	fe042423          	sw	zero,-24(s0)
    alt_32   MAX_STRING_LENGTH=1000;
     e9c:	3e800793          	li	a5,1000
     ea0:	fef42623          	sw	a5,-20(s0)
    
    if (llist == NULL) { return NULL; }
     ea4:	fd842783          	lw	a5,-40(s0)
     ea8:	00079663          	bnez	a5,eb4 <alt_find_dev+0x34>
     eac:	00000793          	li	a5,0
     eb0:	0e00006f          	j	f90 <alt_find_dev+0x110>
    next = (alt_dev*) llist->next;
     eb4:	fd842783          	lw	a5,-40(s0)
     eb8:	0007a783          	lw	a5,0(a5)
     ebc:	fef42223          	sw	a5,-28(s0)
    /*
     * Check each list entry in turn, until a match is found, or we reach the
     * end of the list (i.e. next winds up pointing back to the list head).
     */ 

    while (next != (alt_dev*) llist)
     ec0:	0c00006f          	j	f80 <alt_find_dev+0x100>
    {
        len=0;
     ec4:	fe042423          	sw	zero,-24(s0)
        while ((name[len] != 0) && (next->name[len]!=0) && (len < MAX_STRING_LENGTH))
     ec8:	0380006f          	j	f00 <alt_find_dev+0x80>
        {
            if (next->name[len] != name[len]) { break; }
     ecc:	fe442783          	lw	a5,-28(s0)
     ed0:	0087a703          	lw	a4,8(a5)
     ed4:	fe842783          	lw	a5,-24(s0)
     ed8:	00f707b3          	add	a5,a4,a5
     edc:	0007c703          	lbu	a4,0(a5)
     ee0:	fe842783          	lw	a5,-24(s0)
     ee4:	fdc42683          	lw	a3,-36(s0)
     ee8:	00f687b3          	add	a5,a3,a5
     eec:	0007c783          	lbu	a5,0(a5)
     ef0:	04f71663          	bne	a4,a5,f3c <alt_find_dev+0xbc>
            len++;
     ef4:	fe842783          	lw	a5,-24(s0)
     ef8:	00178793          	add	a5,a5,1
     efc:	fef42423          	sw	a5,-24(s0)
        while ((name[len] != 0) && (next->name[len]!=0) && (len < MAX_STRING_LENGTH))
     f00:	fe842783          	lw	a5,-24(s0)
     f04:	fdc42703          	lw	a4,-36(s0)
     f08:	00f707b3          	add	a5,a4,a5
     f0c:	0007c783          	lbu	a5,0(a5)
     f10:	02078863          	beqz	a5,f40 <alt_find_dev+0xc0>
     f14:	fe442783          	lw	a5,-28(s0)
     f18:	0087a703          	lw	a4,8(a5)
     f1c:	fe842783          	lw	a5,-24(s0)
     f20:	00f707b3          	add	a5,a4,a5
     f24:	0007c783          	lbu	a5,0(a5)
     f28:	00078c63          	beqz	a5,f40 <alt_find_dev+0xc0>
     f2c:	fe842703          	lw	a4,-24(s0)
     f30:	fec42783          	lw	a5,-20(s0)
     f34:	f8f74ce3          	blt	a4,a5,ecc <alt_find_dev+0x4c>
     f38:	0080006f          	j	f40 <alt_find_dev+0xc0>
            if (next->name[len] != name[len]) { break; }
     f3c:	00000013          	nop
        }
    
        /* match found */
        if ((name[len] == 0) && (next->name[len]==0)) {  return next; }
     f40:	fe842783          	lw	a5,-24(s0)
     f44:	fdc42703          	lw	a4,-36(s0)
     f48:	00f707b3          	add	a5,a4,a5
     f4c:	0007c783          	lbu	a5,0(a5)
     f50:	02079263          	bnez	a5,f74 <alt_find_dev+0xf4>
     f54:	fe442783          	lw	a5,-28(s0)
     f58:	0087a703          	lw	a4,8(a5)
     f5c:	fe842783          	lw	a5,-24(s0)
     f60:	00f707b3          	add	a5,a4,a5
     f64:	0007c783          	lbu	a5,0(a5)
     f68:	00079663          	bnez	a5,f74 <alt_find_dev+0xf4>
     f6c:	fe442783          	lw	a5,-28(s0)
     f70:	0200006f          	j	f90 <alt_find_dev+0x110>

        next = (alt_dev*) next->llist.next;
     f74:	fe442783          	lw	a5,-28(s0)
     f78:	0007a783          	lw	a5,0(a5)
     f7c:	fef42223          	sw	a5,-28(s0)
    while (next != (alt_dev*) llist)
     f80:	fe442703          	lw	a4,-28(s0)
     f84:	fd842783          	lw	a5,-40(s0)
     f88:	f2f71ee3          	bne	a4,a5,ec4 <alt_find_dev+0x44>
    }
  
    /* No match found */
  
    return NULL;
     f8c:	00000793          	li	a5,0
}
     f90:	00078513          	mv	a0,a5
     f94:	02c12403          	lw	s0,44(sp)
     f98:	03010113          	add	sp,sp,48
     f9c:	00008067          	ret

00000fa0 <alt_find_file>:
 * either '/' or '\0' is the prefix of the filename. For example the filename:
 * "/myfilesystem/junk.txt" would match: "/myfilesystem", but not: "/myfile". 
 */
 
alt_dev* alt_find_file (const char* name)
{
     fa0:	fd010113          	add	sp,sp,-48
     fa4:	02812623          	sw	s0,44(sp)
     fa8:	03010413          	add	s0,sp,48
     fac:	fca42e23          	sw	a0,-36(s0)
    alt_dev* next = (alt_dev*) alt_fs_list.next;   
     fb0:	000027b7          	lui	a5,0x2
     fb4:	90478793          	add	a5,a5,-1788 # 1904 <alt_fs_list>
     fb8:	0007a783          	lw	a5,0(a5)
     fbc:	fef42223          	sw	a5,-28(s0)
    alt_32   len=0;
     fc0:	fe042423          	sw	zero,-24(s0)
    alt_32   MAX_STRING_LENGTH=1000;
     fc4:	3e800793          	li	a5,1000
     fc8:	fef42623          	sw	a5,-20(s0)
 
    /*
    * Check each list entry in turn, until a match is found, or we reach the
    * end of the list (i.e. next winds up pointing back to the list head).
    */ 
    while (next != (alt_dev*) &alt_fs_list)
     fcc:	0ec0006f          	j	10b8 <alt_find_file+0x118>
    {
        len=0;
     fd0:	fe042423          	sw	zero,-24(s0)
        while (len < MAX_STRING_LENGTH)    
     fd4:	0bc0006f          	j	1090 <alt_find_file+0xf0>
        {
            if (((next->name[len]== '/') && (next->name[len+1] == 0)) || (next->name[len] == 0))
     fd8:	fe442783          	lw	a5,-28(s0)
     fdc:	0087a703          	lw	a4,8(a5)
     fe0:	fe842783          	lw	a5,-24(s0)
     fe4:	00f707b3          	add	a5,a4,a5
     fe8:	0007c703          	lbu	a4,0(a5)
     fec:	02f00793          	li	a5,47
     ff0:	02f71063          	bne	a4,a5,1010 <alt_find_file+0x70>
     ff4:	fe442783          	lw	a5,-28(s0)
     ff8:	0087a703          	lw	a4,8(a5)
     ffc:	fe842783          	lw	a5,-24(s0)
    1000:	00178793          	add	a5,a5,1
    1004:	00f707b3          	add	a5,a4,a5
    1008:	0007c783          	lbu	a5,0(a5)
    100c:	00078e63          	beqz	a5,1028 <alt_find_file+0x88>
    1010:	fe442783          	lw	a5,-28(s0)
    1014:	0087a703          	lw	a4,8(a5)
    1018:	fe842783          	lw	a5,-24(s0)
    101c:	00f707b3          	add	a5,a4,a5
    1020:	0007c783          	lbu	a5,0(a5)
    1024:	02079c63          	bnez	a5,105c <alt_find_file+0xbc>
            { 
                if ((name[len]== '/') || (name[len] == 0))
    1028:	fe842783          	lw	a5,-24(s0)
    102c:	fdc42703          	lw	a4,-36(s0)
    1030:	00f707b3          	add	a5,a4,a5
    1034:	0007c703          	lbu	a4,0(a5)
    1038:	02f00793          	li	a5,47
    103c:	00f70c63          	beq	a4,a5,1054 <alt_find_file+0xb4>
    1040:	fe842783          	lw	a5,-24(s0)
    1044:	fdc42703          	lw	a4,-36(s0)
    1048:	00f707b3          	add	a5,a4,a5
    104c:	0007c783          	lbu	a5,0(a5)
    1050:	04079863          	bnez	a5,10a0 <alt_find_file+0x100>
                {
                    return next;
    1054:	fe442783          	lw	a5,-28(s0)
    1058:	0740006f          	j	10cc <alt_find_file+0x12c>
                }
                break;
            }
            
            if (next->name[len]!=name[len]) { break; }
    105c:	fe442783          	lw	a5,-28(s0)
    1060:	0087a703          	lw	a4,8(a5)
    1064:	fe842783          	lw	a5,-24(s0)
    1068:	00f707b3          	add	a5,a4,a5
    106c:	0007c703          	lbu	a4,0(a5)
    1070:	fe842783          	lw	a5,-24(s0)
    1074:	fdc42683          	lw	a3,-36(s0)
    1078:	00f687b3          	add	a5,a3,a5
    107c:	0007c783          	lbu	a5,0(a5)
    1080:	02f71463          	bne	a4,a5,10a8 <alt_find_file+0x108>
            len++;
    1084:	fe842783          	lw	a5,-24(s0)
    1088:	00178793          	add	a5,a5,1
    108c:	fef42423          	sw	a5,-24(s0)
        while (len < MAX_STRING_LENGTH)    
    1090:	fe842703          	lw	a4,-24(s0)
    1094:	fec42783          	lw	a5,-20(s0)
    1098:	f4f740e3          	blt	a4,a5,fd8 <alt_find_file+0x38>
    109c:	0100006f          	j	10ac <alt_find_file+0x10c>
                break;
    10a0:	00000013          	nop
    10a4:	0080006f          	j	10ac <alt_find_file+0x10c>
            if (next->name[len]!=name[len]) { break; }
    10a8:	00000013          	nop
        }  
        
        next = (alt_dev*) next->llist.next;
    10ac:	fe442783          	lw	a5,-28(s0)
    10b0:	0007a783          	lw	a5,0(a5)
    10b4:	fef42223          	sw	a5,-28(s0)
    while (next != (alt_dev*) &alt_fs_list)
    10b8:	fe442703          	lw	a4,-28(s0)
    10bc:	000027b7          	lui	a5,0x2
    10c0:	90478793          	add	a5,a5,-1788 # 1904 <alt_fs_list>
    10c4:	f0f716e3          	bne	a4,a5,fd0 <alt_find_file+0x30>
    }
  
    /* No match found */
  
    return NULL;     
    10c8:	00000793          	li	a5,0
}
    10cc:	00078513          	mv	a0,a5
    10d0:	02c12403          	lw	s0,44(sp)
    10d4:	03010113          	add	sp,sp,48
    10d8:	00008067          	ret

000010dc <alt_get_fd>:
 * the offset of the file descriptor within the file descriptor array). A
 * negative value indicates failure.
 */

int alt_get_fd (alt_dev* dev)
{
    10dc:	fd010113          	add	sp,sp,-48
    10e0:	02812623          	sw	s0,44(sp)
    10e4:	03010413          	add	s0,sp,48
    10e8:	fca42e23          	sw	a0,-36(s0)
  alt_32 i;
  int rc = -EMFILE;
    10ec:	fe800793          	li	a5,-24
    10f0:	fef42623          	sw	a5,-20(s0)
   * indicates the highest file descriptor ever allocated. This is used to
   * improve efficency when searching the file descriptor list, and 
   * therefore reduce contention on the alt_fd_list_lock semaphore. 
   */

  for (i = 0; i < ALT_MAX_FD; i++)
    10f4:	fe042423          	sw	zero,-24(s0)
    10f8:	0800006f          	j	1178 <alt_get_fd+0x9c>
  {
    if (!alt_fd_list[i].dev)
    10fc:	000017b7          	lui	a5,0x1
    1100:	77078693          	add	a3,a5,1904 # 1770 <alt_fd_list>
    1104:	fe842703          	lw	a4,-24(s0)
    1108:	00070793          	mv	a5,a4
    110c:	00179793          	sll	a5,a5,0x1
    1110:	00e787b3          	add	a5,a5,a4
    1114:	00279793          	sll	a5,a5,0x2
    1118:	00f687b3          	add	a5,a3,a5
    111c:	0007a783          	lw	a5,0(a5)
    1120:	04079663          	bnez	a5,116c <alt_get_fd+0x90>
    {
      alt_fd_list[i].dev = dev;
    1124:	000017b7          	lui	a5,0x1
    1128:	77078693          	add	a3,a5,1904 # 1770 <alt_fd_list>
    112c:	fe842703          	lw	a4,-24(s0)
    1130:	00070793          	mv	a5,a4
    1134:	00179793          	sll	a5,a5,0x1
    1138:	00e787b3          	add	a5,a5,a4
    113c:	00279793          	sll	a5,a5,0x2
    1140:	00f687b3          	add	a5,a3,a5
    1144:	fdc42703          	lw	a4,-36(s0)
    1148:	00e7a023          	sw	a4,0(a5)
      if (i > alt_max_fd)
    114c:	8101a783          	lw	a5,-2032(gp) # 1914 <alt_max_fd>
    1150:	fe842703          	lw	a4,-24(s0)
    1154:	00e7d663          	bge	a5,a4,1160 <alt_get_fd+0x84>
      {
        alt_max_fd = i;
    1158:	fe842703          	lw	a4,-24(s0)
    115c:	80e1a823          	sw	a4,-2032(gp) # 1914 <alt_max_fd>
      }
      rc = i;
    1160:	fe842783          	lw	a5,-24(s0)
    1164:	fef42623          	sw	a5,-20(s0)
      goto alt_get_fd_exit;
    1168:	0200006f          	j	1188 <alt_get_fd+0xac>
  for (i = 0; i < ALT_MAX_FD; i++)
    116c:	fe842783          	lw	a5,-24(s0)
    1170:	00178793          	add	a5,a5,1
    1174:	fef42423          	sw	a5,-24(s0)
    1178:	fe842703          	lw	a4,-24(s0)
    117c:	01f00793          	li	a5,31
    1180:	f6e7dee3          	bge	a5,a4,10fc <alt_get_fd+0x20>
    }
  }

 alt_get_fd_exit:
    1184:	00000013          	nop
   * file descriptor pool.
   */

  ALT_SEM_POST(alt_fd_list_lock);

  return rc;
    1188:	fec42783          	lw	a5,-20(s0)
}
    118c:	00078513          	mv	a0,a5
    1190:	02c12403          	lw	s0,44(sp)
    1194:	03010113          	add	sp,sp,48
    1198:	00008067          	ret

0000119c <__stack_chk_init>:
    119c:	a2018513          	add	a0,gp,-1504 # 1b24 <__stack_chk_guard>
    11a0:	00052783          	lw	a5,0(a0)
    11a4:	02079263          	bnez	a5,11c8 <__stack_chk_init+0x2c>
    11a8:	00000793          	li	a5,0
    11ac:	00078863          	beqz	a5,11bc <__stack_chk_init+0x20>
    11b0:	00400593          	li	a1,4
    11b4:	00000317          	auipc	t1,0x0
    11b8:	00000067          	jr	zero # 0 <__reset>
    11bc:	ff0a07b7          	lui	a5,0xff0a0
    11c0:	00f52023          	sw	a5,0(a0)
    11c4:	00008067          	ret
    11c8:	00008067          	ret

000011cc <__stack_chk_fail_weak>:
    11cc:	348002ef          	jal	t0,1514 <__riscv_save_0>
    11d0:	00000517          	auipc	a0,0x0
    11d4:	51450513          	add	a0,a0,1300 # 16e4 <__flash_rodata_start+0x34>
    11d8:	1cc000ef          	jal	13a4 <puts>
    11dc:	00600513          	li	a0,6
    11e0:	280000ef          	jal	1460 <raise>
    11e4:	07f00513          	li	a0,127
    11e8:	38c000ef          	jal	1574 <_exit>

000011ec <atexit>:
    11ec:	00050593          	mv	a1,a0
    11f0:	00000613          	li	a2,0
    11f4:	00200513          	li	a0,2
    11f8:	02c0006f          	j	1224 <_on_exit>

000011fc <exit>:
    11fc:	318002ef          	jal	t0,1514 <__riscv_save_0>
    1200:	00000797          	auipc	a5,0x0
    1204:	09478793          	add	a5,a5,148 # 1294 <__call_exitprocs>
    1208:	00050413          	mv	s0,a0
    120c:	00078663          	beqz	a5,1218 <exit+0x1c>
    1210:	00000593          	li	a1,0
    1214:	080000ef          	jal	1294 <__call_exitprocs>
    1218:	1f4000ef          	jal	140c <__libc_fini_array>
    121c:	00040513          	mv	a0,s0
    1220:	354000ef          	jal	1574 <_exit>

00001224 <_on_exit>:
    1224:	2c0002ef          	jal	t0,14e4 <__riscv_save_4>
    1228:	00050493          	mv	s1,a0
    122c:	a2418513          	add	a0,gp,-1500 # 1b28 <__lock___libc_recursive_mutex>
    1230:	00060993          	mv	s3,a2
    1234:	00058913          	mv	s2,a1
    1238:	220000ef          	jal	1458 <__retarget_lock_acquire_recursive>
    123c:	a2818693          	add	a3,gp,-1496 # 1b2c <on_exits>
    1240:	00000793          	li	a5,0
    1244:	00068713          	mv	a4,a3
    1248:	02000613          	li	a2,32
    124c:	0086a403          	lw	s0,8(a3)
    1250:	02041863          	bnez	s0,1280 <_on_exit+0x5c>
    1254:	00179693          	sll	a3,a5,0x1
    1258:	00f687b3          	add	a5,a3,a5
    125c:	00279793          	sll	a5,a5,0x2
    1260:	00f707b3          	add	a5,a4,a5
    1264:	0127a023          	sw	s2,0(a5)
    1268:	0137a223          	sw	s3,4(a5)
    126c:	0097a423          	sw	s1,8(a5)
    1270:	a2418513          	add	a0,gp,-1500 # 1b28 <__lock___libc_recursive_mutex>
    1274:	1e8000ef          	jal	145c <__retarget_lock_release_recursive>
    1278:	00040513          	mv	a0,s0
    127c:	2cc0006f          	j	1548 <__riscv_restore_4>
    1280:	00178793          	add	a5,a5,1
    1284:	00c68693          	add	a3,a3,12
    1288:	fcc792e3          	bne	a5,a2,124c <_on_exit+0x28>
    128c:	fff00413          	li	s0,-1
    1290:	fe1ff06f          	j	1270 <_on_exit+0x4c>

00001294 <__call_exitprocs>:
    1294:	234002ef          	jal	t0,14c8 <__riscv_save_10>
    1298:	ff010113          	add	sp,sp,-16
    129c:	00050493          	mv	s1,a0
    12a0:	a2418993          	add	s3,gp,-1500 # 1b28 <__lock___libc_recursive_mutex>
    12a4:	fff00a13          	li	s4,-1
    12a8:	00200913          	li	s2,2
    12ac:	00300a93          	li	s5,3
    12b0:	00100b13          	li	s6,1
    12b4:	00098513          	mv	a0,s3
    12b8:	1a0000ef          	jal	1458 <__retarget_lock_acquire_recursive>
    12bc:	a2818693          	add	a3,gp,-1496 # 1b2c <on_exits>
    12c0:	01f00713          	li	a4,31
    12c4:	00068793          	mv	a5,a3
    12c8:	17c6a403          	lw	s0,380(a3)
    12cc:	04040a63          	beqz	s0,1320 <__call_exitprocs+0x8c>
    12d0:	00171693          	sll	a3,a4,0x1
    12d4:	00e68733          	add	a4,a3,a4
    12d8:	00271713          	sll	a4,a4,0x2
    12dc:	00e787b3          	add	a5,a5,a4
    12e0:	0007ab83          	lw	s7,0(a5)
    12e4:	0047a583          	lw	a1,4(a5)
    12e8:	0007a023          	sw	zero,0(a5)
    12ec:	0007a223          	sw	zero,4(a5)
    12f0:	0007a423          	sw	zero,8(a5)
    12f4:	00098513          	mv	a0,s3
    12f8:	00b12623          	sw	a1,12(sp)
    12fc:	160000ef          	jal	145c <__retarget_lock_release_recursive>
    1300:	05240463          	beq	s0,s2,1348 <__call_exitprocs+0xb4>
    1304:	00c12583          	lw	a1,12(sp)
    1308:	02894863          	blt	s2,s0,1338 <__call_exitprocs+0xa4>
    130c:	04040263          	beqz	s0,1350 <__call_exitprocs+0xbc>
    1310:	fb6412e3          	bne	s0,s6,12b4 <__call_exitprocs+0x20>
    1314:	00048513          	mv	a0,s1
    1318:	000b80e7          	jalr	s7
    131c:	f99ff06f          	j	12b4 <__call_exitprocs+0x20>
    1320:	fff70713          	add	a4,a4,-1
    1324:	ff468693          	add	a3,a3,-12
    1328:	fb4710e3          	bne	a4,s4,12c8 <__call_exitprocs+0x34>
    132c:	00000b93          	li	s7,0
    1330:	00000593          	li	a1,0
    1334:	fc1ff06f          	j	12f4 <__call_exitprocs+0x60>
    1338:	f7541ee3          	bne	s0,s5,12b4 <__call_exitprocs+0x20>
    133c:	00058513          	mv	a0,a1
    1340:	000b80e7          	jalr	s7
    1344:	f71ff06f          	j	12b4 <__call_exitprocs+0x20>
    1348:	000b80e7          	jalr	s7
    134c:	f69ff06f          	j	12b4 <__call_exitprocs+0x20>
    1350:	01010113          	add	sp,sp,16
    1354:	1e00006f          	j	1534 <__riscv_restore_10>

00001358 <fputs>:
    1358:	1bc002ef          	jal	t0,1514 <__riscv_save_0>
    135c:	0045c783          	lbu	a5,4(a1)
    1360:	fff00913          	li	s2,-1
    1364:	0027f793          	and	a5,a5,2
    1368:	00078e63          	beqz	a5,1384 <fputs+0x2c>
    136c:	00050413          	mv	s0,a0
    1370:	00058493          	mv	s1,a1
    1374:	00000913          	li	s2,0
    1378:	00044503          	lbu	a0,0(s0)
    137c:	00140413          	add	s0,s0,1
    1380:	00051663          	bnez	a0,138c <fputs+0x34>
    1384:	00090513          	mv	a0,s2
    1388:	1d40006f          	j	155c <__riscv_restore_0>
    138c:	0084a783          	lw	a5,8(s1)
    1390:	00048593          	mv	a1,s1
    1394:	000780e7          	jalr	a5
    1398:	fe0550e3          	bgez	a0,1378 <fputs+0x20>
    139c:	fff00913          	li	s2,-1
    13a0:	fd9ff06f          	j	1378 <fputs+0x20>

000013a4 <puts>:
    13a4:	170002ef          	jal	t0,1514 <__riscv_save_0>
    13a8:	00000597          	auipc	a1,0x0
    13ac:	3685a583          	lw	a1,872(a1) # 1710 <stdout>
    13b0:	0045c783          	lbu	a5,4(a1)
    13b4:	ff010113          	add	sp,sp,-16
    13b8:	00050413          	mv	s0,a0
    13bc:	0027f793          	and	a5,a5,2
    13c0:	00000493          	li	s1,0
    13c4:	02079463          	bnez	a5,13ec <puts+0x48>
    13c8:	fff00493          	li	s1,-1
    13cc:	00048513          	mv	a0,s1
    13d0:	01010113          	add	sp,sp,16
    13d4:	1880006f          	j	155c <__riscv_restore_0>
    13d8:	00b12623          	sw	a1,12(sp)
    13dc:	000780e7          	jalr	a5
    13e0:	00c12583          	lw	a1,12(sp)
    13e4:	00055463          	bgez	a0,13ec <puts+0x48>
    13e8:	fff00493          	li	s1,-1
    13ec:	00044503          	lbu	a0,0(s0)
    13f0:	00140413          	add	s0,s0,1
    13f4:	0085a783          	lw	a5,8(a1)
    13f8:	fe0510e3          	bnez	a0,13d8 <puts+0x34>
    13fc:	00a00513          	li	a0,10
    1400:	000780e7          	jalr	a5
    1404:	fc0554e3          	bgez	a0,13cc <puts+0x28>
    1408:	fc1ff06f          	j	13c8 <puts+0x24>

0000140c <__libc_fini_array>:
    140c:	108002ef          	jal	t0,1514 <__riscv_save_0>
    1410:	00000497          	auipc	s1,0x0
    1414:	1a848493          	add	s1,s1,424 # 15b8 <__fini_array_end>
    1418:	00000417          	auipc	s0,0x0
    141c:	1a040413          	add	s0,s0,416 # 15b8 <__fini_array_end>
    1420:	40940433          	sub	s0,s0,s1
    1424:	40245413          	sra	s0,s0,0x2
    1428:	00041c63          	bnez	s0,1440 <__libc_fini_array+0x34>
    142c:	00000793          	li	a5,0
    1430:	00078663          	beqz	a5,143c <__libc_fini_array+0x30>
    1434:	00000097          	auipc	ra,0x0
    1438:	000000e7          	jalr	zero # 0 <__reset>
    143c:	1200006f          	j	155c <__riscv_restore_0>
    1440:	fff40413          	add	s0,s0,-1
    1444:	00241793          	sll	a5,s0,0x2
    1448:	00f487b3          	add	a5,s1,a5
    144c:	0007a783          	lw	a5,0(a5)
    1450:	000780e7          	jalr	a5
    1454:	fd5ff06f          	j	1428 <__libc_fini_array+0x1c>

00001458 <__retarget_lock_acquire_recursive>:
    1458:	00008067          	ret

0000145c <__retarget_lock_release_recursive>:
    145c:	00008067          	ret

00001460 <raise>:
    1460:	01f00713          	li	a4,31
    1464:	00a77a63          	bgeu	a4,a0,1478 <raise+0x18>
    1468:	01600793          	li	a5,22
    146c:	a0f1ae23          	sw	a5,-1508(gp) # 1b20 <errno>
    1470:	fff00513          	li	a0,-1
    1474:	00008067          	ret
    1478:	00251693          	sll	a3,a0,0x2
    147c:	ba818713          	add	a4,gp,-1112 # 1cac <_sig_func>
    1480:	00d70733          	add	a4,a4,a3
    1484:	00072683          	lw	a3,0(a4)
    1488:	00100613          	li	a2,1
    148c:	02c68263          	beq	a3,a2,14b0 <raise+0x50>
    1490:	084002ef          	jal	t0,1514 <__riscv_save_0>
    1494:	00069663          	bnez	a3,14a0 <raise+0x40>
    1498:	08050513          	add	a0,a0,128
    149c:	0d8000ef          	jal	1574 <_exit>
    14a0:	00072023          	sw	zero,0(a4)
    14a4:	000680e7          	jalr	a3
    14a8:	00000513          	li	a0,0
    14ac:	0b00006f          	j	155c <__riscv_restore_0>
    14b0:	00000513          	li	a0,0
    14b4:	00008067          	ret

000014b8 <__riscv_save_12>:
    14b8:	fc010113          	add	sp,sp,-64
    14bc:	00000313          	li	t1,0
    14c0:	01b12623          	sw	s11,12(sp)
    14c4:	00c0006f          	j	14d0 <__riscv_save_10+0x8>

000014c8 <__riscv_save_10>:
    14c8:	fc010113          	add	sp,sp,-64
    14cc:	ff000313          	li	t1,-16
    14d0:	01a12823          	sw	s10,16(sp)
    14d4:	01912a23          	sw	s9,20(sp)
    14d8:	01812c23          	sw	s8,24(sp)
    14dc:	01712e23          	sw	s7,28(sp)
    14e0:	00c0006f          	j	14ec <__riscv_save_4+0x8>

000014e4 <__riscv_save_4>:
    14e4:	fc010113          	add	sp,sp,-64
    14e8:	fe000313          	li	t1,-32
    14ec:	03612023          	sw	s6,32(sp)
    14f0:	03512223          	sw	s5,36(sp)
    14f4:	03412423          	sw	s4,40(sp)
    14f8:	03312623          	sw	s3,44(sp)
    14fc:	03212823          	sw	s2,48(sp)
    1500:	02912a23          	sw	s1,52(sp)
    1504:	02812c23          	sw	s0,56(sp)
    1508:	02112e23          	sw	ra,60(sp)
    150c:	40610133          	sub	sp,sp,t1
    1510:	00028067          	jr	t0

00001514 <__riscv_save_0>:
    1514:	ff010113          	add	sp,sp,-16
    1518:	01212023          	sw	s2,0(sp)
    151c:	00912223          	sw	s1,4(sp)
    1520:	00812423          	sw	s0,8(sp)
    1524:	00112623          	sw	ra,12(sp)
    1528:	00028067          	jr	t0

0000152c <__riscv_restore_12>:
    152c:	00c12d83          	lw	s11,12(sp)
    1530:	01010113          	add	sp,sp,16

00001534 <__riscv_restore_10>:
    1534:	00012d03          	lw	s10,0(sp)
    1538:	00412c83          	lw	s9,4(sp)
    153c:	00812c03          	lw	s8,8(sp)
    1540:	00c12b83          	lw	s7,12(sp)
    1544:	01010113          	add	sp,sp,16

00001548 <__riscv_restore_4>:
    1548:	00012b03          	lw	s6,0(sp)
    154c:	00412a83          	lw	s5,4(sp)
    1550:	00812a03          	lw	s4,8(sp)
    1554:	00c12983          	lw	s3,12(sp)
    1558:	01010113          	add	sp,sp,16

0000155c <__riscv_restore_0>:
    155c:	00012903          	lw	s2,0(sp)
    1560:	00412483          	lw	s1,4(sp)
    1564:	00812403          	lw	s0,8(sp)
    1568:	00c12083          	lw	ra,12(sp)
    156c:	01010113          	add	sp,sp,16
    1570:	00008067          	ret

00001574 <_exit>:
 *
 * ALT_EXIT is mapped onto the _exit() system call in alt_syscall.h
 */

void ALT_EXIT (int exit_code)
{
    1574:	fd010113          	add	sp,sp,-48
    1578:	02812623          	sw	s0,44(sp)
    157c:	03010413          	add	s0,sp,48
    1580:	fca42e23          	sw	a0,-36(s0)
  ALT_LOG_PRINT_BOOT("[alt_exit.c] Entering _exit() function.\r\n");
  ALT_LOG_PRINT_BOOT("[alt_exit.c] Exit code from main was %d.\r\n",exit_code);
  /* Stop all other threads */

  ALT_LOG_PRINT_BOOT("[alt_exit.c] Calling ALT_OS_STOP().\r\n");
  ALT_OS_STOP();
    1584:	00000013          	nop
    1588:	fdc42783          	lw	a5,-36(s0)
    158c:	fef42623          	sw	a5,-20(s0)
 * Routine called on exit.
 * TODO: Add support for GMON/gprof.
 */
static ALT_INLINE ALT_ALWAYS_INLINE void alt_sim_halt(int exit_code)
{
  register int a0 asm ("a0") = exit_code;
    1590:	fec42503          	lw	a0,-20(s0)
    "ebreak" 
    : 
    : "r"(a0), "r"(a1));

#else /* !DEBUG_STUB */
  if (a0) {
    1594:	00050793          	mv	a5,a0
    1598:	00078663          	beqz	a5,15a4 <_exit+0x30>
    ALT_SIM_FAIL();
    159c:	7c103013          	sltiu	zero,zero,1985
  } else {
    ALT_SIM_PASS();
  }
#endif /* DEBUG_STUB */
}
    15a0:	0080006f          	j	15a8 <_exit+0x34>
    ALT_SIM_PASS();
    15a4:	7c203013          	sltiu	zero,zero,1986
}
    15a8:	00000013          	nop
  ALT_SIM_HALT(exit_code);

  /* spin forever, since there's no where to go back to */

  ALT_LOG_PRINT_BOOT("[alt_exit.c] Spinning forever.\r\n");
  while (1);
    15ac:	00000013          	nop
    15b0:	ffdff06f          	j	15ac <_exit+0x38>
    15b4:	119c                	.insn	2, 0x119c
    15b6:	0000                	.insn	2, 0x
    15b8:	0010                	.insn	2, 0x0010
    15ba:	0000                	.insn	2, 0x
    15bc:	0000                	.insn	2, 0x
    15be:	0000                	.insn	2, 0x
    15c0:	00527a03          	.insn	4, 0x00527a03
    15c4:	7c01                	.insn	2, 0x7c01
    15c6:	0105                	.insn	2, 0x0105
    15c8:	00020d1b          	.insn	4, 0x00020d1b
    15cc:	0048                	.insn	2, 0x0048
    15ce:	0000                	.insn	2, 0x
    15d0:	0018                	.insn	2, 0x0018
    15d2:	0000                	.insn	2, 0x
    15d4:	fee4                	.insn	2, 0xfee4
    15d6:	ffff                	.insn	2, 0xffff
    15d8:	005c                	.insn	2, 0x005c
    15da:	0000                	.insn	2, 0x
    15dc:	4400                	.insn	2, 0x4400
    15de:	400e                	.insn	2, 0x400e
    15e0:	9b48                	.insn	2, 0x9b48
    15e2:	440d                	.insn	2, 0x440d
    15e4:	400e44db          	.insn	4, 0x400e44db
    15e8:	9a48                	.insn	2, 0x9a48
    15ea:	440c                	.insn	2, 0x440c
    15ec:	0b99                	.insn	2, 0x0b99
    15ee:	9844                	.insn	2, 0x9844
    15f0:	440a                	.insn	2, 0x440a
    15f2:	d7440997          	auipc	s3,0xd7440
    15f6:	d9d8                	.insn	2, 0xd9d8
    15f8:	dbda                	.insn	2, 0xdbda
    15fa:	0e44                	.insn	2, 0x0e44
    15fc:	4840                	.insn	2, 0x4840
    15fe:	0896                	.insn	2, 0x0896
    1600:	9544                	.insn	2, 0x9544
    1602:	06944407          	.insn	4, 0x06944407
    1606:	9344                	.insn	2, 0x9344
    1608:	4405                	.insn	2, 0x4405
    160a:	0492                	.insn	2, 0x0492
    160c:	8944                	.insn	2, 0x8944
    160e:	02884403          	lbu	s0,40(a6)
    1612:	8144                	.insn	2, 0x8144
    1614:	0001                	.insn	2, 0x0001
    1616:	0000                	.insn	2, 0x
    1618:	001c                	.insn	2, 0x001c
    161a:	0000                	.insn	2, 0x
    161c:	0064                	.insn	2, 0x0064
    161e:	0000                	.insn	2, 0x
    1620:	fef4                	.insn	2, 0xfef4
    1622:	ffff                	.insn	2, 0xffff
    1624:	0018                	.insn	2, 0x0018
    1626:	0000                	.insn	2, 0x
    1628:	4400                	.insn	2, 0x4400
    162a:	100e                	.insn	2, 0x100e
    162c:	8948                	.insn	2, 0x8948
    162e:	4404                	.insn	2, 0x4404
    1630:	0288                	.insn	2, 0x0288
    1632:	8144                	.insn	2, 0x8144
    1634:	0001                	.insn	2, 0x0001
    1636:	0000                	.insn	2, 0x
    1638:	002c                	.insn	2, 0x002c
    163a:	0000                	.insn	2, 0x
    163c:	0000                	.insn	2, 0x
    163e:	0000                	.insn	2, 0x
    1640:	00527a03          	.insn	4, 0x00527a03
    1644:	7c01                	.insn	2, 0x7c01
    1646:	0101                	.insn	2, 0x0101
    1648:	0e020d1b          	.insn	4, 0x0e020d1b
    164c:	9b40                	.insn	2, 0x9b40
    164e:	9a0d                	.insn	2, 0x9a0d
    1650:	990c                	.insn	2, 0x990c
    1652:	970a980b          	.insn	4, 0x970a980b
    1656:	9609                	.insn	2, 0x9609
    1658:	9508                	.insn	2, 0x9508
    165a:	93069407          	.insn	4, 0x93069407
    165e:	9205                	.insn	2, 0x9205
    1660:	8904                	.insn	2, 0x8904
    1662:	81028803          	lb	a6,-2032(t0)
    1666:	0001                	.insn	2, 0x0001
    1668:	0044                	.insn	2, 0x0044
    166a:	0000                	.insn	2, 0x
    166c:	0034                	.insn	2, 0x0034
    166e:	0000                	.insn	2, 0x
    1670:	febc                	.insn	2, 0xfebc
    1672:	ffff                	.insn	2, 0xffff
    1674:	0048                	.insn	2, 0x0048
    1676:	0000                	.insn	2, 0x
    1678:	4400                	.insn	2, 0x4400
    167a:	0edb44db          	.insn	4, 0x0edb44db
    167e:	4430                	.insn	2, 0x4430
    1680:	44da                	.insn	2, 0x44da
    1682:	44d9                	.insn	2, 0x44d9
    1684:	44d8                	.insn	2, 0x44d8
    1686:	d8d744d7          	.insn	4, 0xd8d744d7
    168a:	dad9                	.insn	2, 0xdad9
    168c:	44200edb          	.insn	4, 0x44200edb
    1690:	44d6                	.insn	2, 0x44d6
    1692:	44d5                	.insn	2, 0x44d5
    1694:	44d4                	.insn	2, 0x44d4
    1696:	d4d344d3          	.insn	4, 0xd4d344d3
    169a:	d6d5                	.insn	2, 0xd6d5
    169c:	d9d8                	.insn	2, 0xd9d8
    169e:	dbda                	.insn	2, 0xdbda
    16a0:	100e                	.insn	2, 0x100e
    16a2:	d244                	.insn	2, 0xd244
    16a4:	c944                	.insn	2, 0xc944
    16a6:	c844                	.insn	2, 0xc844
    16a8:	c144                	.insn	2, 0xc144
    16aa:	0e44                	.insn	2, 0x0e44
    16ac:	0000                	.insn	2, 0x
	...
